ARM GAS  C:\Users\MATEOC~1.QUE\AppData\Local\Temp\ccgsXMdh.s 			page 1


   1              		.syntax unified
   2              		.cpu cortex-m3
   3              		.fpu softvfp
   4              		.eabi_attribute 20, 1
   5              		.eabi_attribute 21, 1
   6              		.eabi_attribute 23, 3
   7              		.eabi_attribute 24, 1
   8              		.eabi_attribute 25, 1
   9              		.eabi_attribute 26, 1
  10              		.eabi_attribute 30, 1
  11              		.eabi_attribute 34, 1
  12              		.eabi_attribute 18, 4
  13              		.thumb
  14              		.syntax unified
  15              		.file	"swc_engine.c"
  16              		.text
  17              	.Ltext0:
  18              		.cfi_sections	.debug_frame
  19              		.section	.text.ENGINE_setEngine_run,"ax",%progbits
  20              		.align	2
  21              		.global	ENGINE_setEngine_run
  22              		.thumb
  23              		.thumb_func
  24              		.type	ENGINE_setEngine_run, %function
  25              	ENGINE_setEngine_run:
  26              	.LFB130:
  27              		.file 1 "source\\asw\\swc_engine.c"
   1:source\asw/swc_engine.c **** 
   2:source\asw/swc_engine.c **** 
   3:source\asw/swc_engine.c **** /*
   4:source\asw/swc_engine.c ****  * Filename: swc_engine.c
   5:source\asw/swc_engine.c ****  *
   6:source\asw/swc_engine.c ****  * Author: Autogenerated by H-DA RTE Generator, (c) Prof. Fromm
   7:source\asw/swc_engine.c ****  */
   8:source\asw/swc_engine.c **** 
   9:source\asw/swc_engine.c **** #include "project.h"
  10:source\asw/swc_engine.c **** #include "global.h"
  11:source\asw/swc_engine.c **** #include "rte.h"
  12:source\asw/swc_engine.c **** #include "rte_types.h"
  13:source\asw/swc_engine.c **** #include "swc_engine.h"
  14:source\asw/swc_engine.c **** 
  15:source\asw/swc_engine.c **** 
  16:source\asw/swc_engine.c **** 
  17:source\asw/swc_engine.c **** /* USER CODE START SWC_ENGINE_INCLUDE */
  18:source\asw/swc_engine.c **** 
  19:source\asw/swc_engine.c **** /* USER CODE END SWC_ENGINE_INCLUDE */
  20:source\asw/swc_engine.c **** 
  21:source\asw/swc_engine.c **** 
  22:source\asw/swc_engine.c **** #include "sp_common.h"
  23:source\asw/swc_engine.c **** 
  24:source\asw/swc_engine.c **** /* USER CODE START SWC_ENGINE_USERDEFINITIONS */
  25:source\asw/swc_engine.c **** #include "led.h"
  26:source\asw/swc_engine.c **** /* USER CODE END SWC_ENGINE_USERDEFINITIONS */
  27:source\asw/swc_engine.c **** 
  28:source\asw/swc_engine.c **** 
  29:source\asw/swc_engine.c **** 
  30:source\asw/swc_engine.c **** /*
ARM GAS  C:\Users\MATEOC~1.QUE\AppData\Local\Temp\ccgsXMdh.s 			page 2


  31:source\asw/swc_engine.c **** * component: swc_engine
  32:source\asw/swc_engine.c **** * cycletime: 100
  33:source\asw/swc_engine.c **** * description: Runnable which sets the speed of the engine
  34:source\asw/swc_engine.c **** * events: 
  35:source\asw/swc_engine.c **** * name: ENGINE_setEngine_run
  36:source\asw/swc_engine.c **** * shortname: setEngine
  37:source\asw/swc_engine.c **** * signalIN: so_targetspeed
  38:source\asw/swc_engine.c **** * signalOUT: 
  39:source\asw/swc_engine.c **** * task: tsk_io
  40:source\asw/swc_engine.c **** */
  41:source\asw/swc_engine.c **** void ENGINE_setEngine_run(RTE_event ev){
  28              		.loc 1 41 0
  29              		.cfi_startproc
  30              		@ args = 0, pretend = 0, frame = 8
  31              		@ frame_needed = 0, uses_anonymous_args = 0
  32              	.LVL0:
  33 0000 F0B5     		push	{r4, r5, r6, r7, lr}
  34              		.cfi_def_cfa_offset 20
  35              		.cfi_offset 4, -20
  36              		.cfi_offset 5, -16
  37              		.cfi_offset 6, -12
  38              		.cfi_offset 7, -8
  39              		.cfi_offset 14, -4
  40 0002 83B0     		sub	sp, sp, #12
  41              		.cfi_def_cfa_offset 32
  42              	.LVL1:
  43              	.LBB47:
  44              	.LBB48:
  45              		.file 2 ".\\source\\rte/sc_speed.h"
   1:.\source\rte/sc_speed.h **** 
   2:.\source\rte/sc_speed.h **** 
   3:.\source\rte/sc_speed.h **** /**
   4:.\source\rte/sc_speed.h **** *  file    SC_SPEED_signal.h
   5:.\source\rte/sc_speed.h **** *
   6:.\source\rte/sc_speed.h **** *  brief   signal base class for signal sc_speed
   7:.\source\rte/sc_speed.h **** *
   8:.\source\rte/sc_speed.h **** *  author  Autogenerated, Peter Fromm       <peter.fromm@h-da.de>
   9:.\source\rte/sc_speed.h **** *
  10:.\source\rte/sc_speed.h **** *
  11:.\source\rte/sc_speed.h **** */
  12:.\source\rte/sc_speed.h **** 
  13:.\source\rte/sc_speed.h **** /*
  14:.\source\rte/sc_speed.h **** * description: Any type of speed signal goes here
  15:.\source\rte/sc_speed.h **** * name: sc_speed
  16:.\source\rte/sc_speed.h **** * shortname: speed
  17:.\source\rte/sc_speed.h **** */
  18:.\source\rte/sc_speed.h **** 
  19:.\source\rte/sc_speed.h **** #ifndef SC_SPEED_SIGNAL_H_INCLUDED
  20:.\source\rte/sc_speed.h **** #define SC_SPEED_SIGNAL_H_INCLUDED
  21:.\source\rte/sc_speed.h **** 
  22:.\source\rte/sc_speed.h **** /*================================================[ public includes  ]=============================
  23:.\source\rte/sc_speed.h **** #include "global.h"
  24:.\source\rte/sc_speed.h **** #include "project.h"
  25:.\source\rte/sc_speed.h **** #include "rte.h"
  26:.\source\rte/sc_speed.h **** #include "rte_types.h"
  27:.\source\rte/sc_speed.h **** 
  28:.\source\rte/sc_speed.h **** #include "sc_speed_type.h"
ARM GAS  C:\Users\MATEOC~1.QUE\AppData\Local\Temp\ccgsXMdh.s 			page 3


  29:.\source\rte/sc_speed.h **** 
  30:.\source\rte/sc_speed.h **** 
  31:.\source\rte/sc_speed.h **** /**************************************************************************************************
  32:.\source\rte/sc_speed.h **** /* The driver API block																						*/
  33:.\source\rte/sc_speed.h **** /**************************************************************************************************
  34:.\source\rte/sc_speed.h ****                                                                                                    
  35:.\source\rte/sc_speed.h **** /**
  36:.\source\rte/sc_speed.h ****  *  Definition of function types for driver interfaces.
  37:.\source\rte/sc_speed.h ****  *  I-Port
  38:.\source\rte/sc_speed.h ****  */
  39:.\source\rte/sc_speed.h **** typedef RC_t (*SC_SPEED_driverIn_t)(SC_SPEED_data_t * const);
  40:.\source\rte/sc_speed.h **** 
  41:.\source\rte/sc_speed.h **** /**
  42:.\source\rte/sc_speed.h ****  *  Definition of function types for driver interfaces.
  43:.\source\rte/sc_speed.h ****  *  O-Port
  44:.\source\rte/sc_speed.h ****  */
  45:.\source\rte/sc_speed.h **** typedef RC_t (*SC_SPEED_driverOut_t)( const SC_SPEED_data_t * const);
  46:.\source\rte/sc_speed.h **** 
  47:.\source\rte/sc_speed.h **** 
  48:.\source\rte/sc_speed.h **** /**************************************************************************************************
  49:.\source\rte/sc_speed.h **** /* The signal configuration API block																				*/
  50:.\source\rte/sc_speed.h **** /**************************************************************************************************
  51:.\source\rte/sc_speed.h **** 
  52:.\source\rte/sc_speed.h **** /**
  53:.\source\rte/sc_speed.h ****  * Instances of the struct SC_SPEED_cfg_t represent the signal object configuration.
  54:.\source\rte/sc_speed.h ****  */
  55:.\source\rte/sc_speed.h **** struct SC_SPEED_cfg_s
  56:.\source\rte/sc_speed.h **** {
  57:.\source\rte/sc_speed.h ****     /**
  58:.\source\rte/sc_speed.h ****      * Function pointer to the input driver
  59:.\source\rte/sc_speed.h ****      */
  60:.\source\rte/sc_speed.h ****     SC_SPEED_driverIn_t const inDriver;
  61:.\source\rte/sc_speed.h **** 
  62:.\source\rte/sc_speed.h ****     /**
  63:.\source\rte/sc_speed.h ****      * Function pointer to the output driver table
  64:.\source\rte/sc_speed.h ****      */
  65:.\source\rte/sc_speed.h ****    SC_SPEED_driverOut_t const outDriver;
  66:.\source\rte/sc_speed.h ****    
  67:.\source\rte/sc_speed.h ****     /**
  68:.\source\rte/sc_speed.h ****      * Event onUpdate
  69:.\source\rte/sc_speed.h ****      */
  70:.\source\rte/sc_speed.h ****     EventMaskType const evOnUpdate;
  71:.\source\rte/sc_speed.h ****     
  72:.\source\rte/sc_speed.h ****     
  73:.\source\rte/sc_speed.h ****     /**
  74:.\source\rte/sc_speed.h ****      * Event onError
  75:.\source\rte/sc_speed.h ****      */
  76:.\source\rte/sc_speed.h ****     EventMaskType const evOnError;
  77:.\source\rte/sc_speed.h ****     
  78:.\source\rte/sc_speed.h ****     /**
  79:.\source\rte/sc_speed.h ****      * Task Count onUpdate
  80:.\source\rte/sc_speed.h ****      */
  81:.\source\rte/sc_speed.h ****     size_t const onUpdateTaskCount;
  82:.\source\rte/sc_speed.h **** 
  83:.\source\rte/sc_speed.h ****     /**
  84:.\source\rte/sc_speed.h ****      * Task List onUpdate
  85:.\source\rte/sc_speed.h ****      */
ARM GAS  C:\Users\MATEOC~1.QUE\AppData\Local\Temp\ccgsXMdh.s 			page 4


  86:.\source\rte/sc_speed.h ****     TaskTypeArray* const onUpdateTasks;
  87:.\source\rte/sc_speed.h ****     
  88:.\source\rte/sc_speed.h ****     /**
  89:.\source\rte/sc_speed.h ****      * Task Count onError
  90:.\source\rte/sc_speed.h ****      */
  91:.\source\rte/sc_speed.h ****     size_t const onErrorTaskCount;
  92:.\source\rte/sc_speed.h **** 
  93:.\source\rte/sc_speed.h ****     /**
  94:.\source\rte/sc_speed.h ****      * Task List onError
  95:.\source\rte/sc_speed.h ****      */
  96:.\source\rte/sc_speed.h ****     TaskTypeArray* const onErrorTasks;
  97:.\source\rte/sc_speed.h **** 	
  98:.\source\rte/sc_speed.h **** 	
  99:.\source\rte/sc_speed.h **** 	/**
 100:.\source\rte/sc_speed.h **** 	 * Ressourse is active? We need an additional boolean as a ressource value 0 is valid.
 101:.\source\rte/sc_speed.h **** 	 */
 102:.\source\rte/sc_speed.h **** 	 boolean_t const resourceActive;
 103:.\source\rte/sc_speed.h **** 	 
 104:.\source\rte/sc_speed.h **** 	/**
 105:.\source\rte/sc_speed.h **** 	 * Ressourse 
 106:.\source\rte/sc_speed.h **** 	 */
 107:.\source\rte/sc_speed.h **** 	 ResourceType const resource;
 108:.\source\rte/sc_speed.h **** 
 109:.\source\rte/sc_speed.h **** };                                                                                                 
 110:.\source\rte/sc_speed.h **** typedef const struct SC_SPEED_cfg_s SC_SPEED_cfg_t;
 111:.\source\rte/sc_speed.h ****                               
 112:.\source\rte/sc_speed.h **** /**************************************************************************************************
 113:.\source\rte/sc_speed.h **** /* The data interface block																							*/
 114:.\source\rte/sc_speed.h **** /**************************************************************************************************
 115:.\source\rte/sc_speed.h **** 
 116:.\source\rte/sc_speed.h ****                                                                                                    
 117:.\source\rte/sc_speed.h **** 							  
 118:.\source\rte/sc_speed.h **** /**
 119:.\source\rte/sc_speed.h ****  * Instances of the struct SC_SPEED_t represent the signal objects.
 120:.\source\rte/sc_speed.h ****  * A signal object contains the current application value 'value' as well as relevant meta data.
 121:.\source\rte/sc_speed.h ****  */
 122:.\source\rte/sc_speed.h **** struct SC_SPEED_s
 123:.\source\rte/sc_speed.h **** {                                                                                                  
 124:.\source\rte/sc_speed.h **** 
 125:.\source\rte/sc_speed.h **** 	/**
 126:.\source\rte/sc_speed.h **** 	 * Data buffer for the application value
 127:.\source\rte/sc_speed.h **** 	 */
 128:.\source\rte/sc_speed.h ****     SC_SPEED_data_t value;
 129:.\source\rte/sc_speed.h **** 
 130:.\source\rte/sc_speed.h ****     /**
 131:.\source\rte/sc_speed.h ****      * Current signal status
 132:.\source\rte/sc_speed.h ****      */
 133:.\source\rte/sc_speed.h ****     RTE_signalStatus_t status;
 134:.\source\rte/sc_speed.h **** 
 135:.\source\rte/sc_speed.h ****     /**
 136:.\source\rte/sc_speed.h ****      * Current age of the signal (in calling cycles)
 137:.\source\rte/sc_speed.h ****      */
 138:.\source\rte/sc_speed.h ****     uint32_t age;
 139:.\source\rte/sc_speed.h **** 
 140:.\source\rte/sc_speed.h ****     /**
 141:.\source\rte/sc_speed.h ****      * Pointer to the signal configuration
 142:.\source\rte/sc_speed.h ****      */
ARM GAS  C:\Users\MATEOC~1.QUE\AppData\Local\Temp\ccgsXMdh.s 			page 5


 143:.\source\rte/sc_speed.h **** 	const SC_SPEED_cfg_t * const    pSigCfg;
 144:.\source\rte/sc_speed.h **** 
 145:.\source\rte/sc_speed.h **** };                                                                                                 
 146:.\source\rte/sc_speed.h **** typedef struct SC_SPEED_s SC_SPEED_t;
 147:.\source\rte/sc_speed.h **** 
 148:.\source\rte/sc_speed.h **** /**************************************************************************************************
 149:.\source\rte/sc_speed.h **** /* Signal initialisation   																							*/
 150:.\source\rte/sc_speed.h **** /**************************************************************************************************
 151:.\source\rte/sc_speed.h **** 
 152:.\source\rte/sc_speed.h **** /**
 153:.\source\rte/sc_speed.h ****  * Initializes a signal instance with a passed init value.
 154:.\source\rte/sc_speed.h ****  * Depending on the configured conversion or scaling function the raw_value will be calculated.
 155:.\source\rte/sc_speed.h ****  * Signal status will change from RTE_SIGNALSTATUS_STARTUP to RTE_SIGNALSTATUS_INITIALIZED.
 156:.\source\rte/sc_speed.h ****  *
 157:.\source\rte/sc_speed.h ****  * @param  SC_SPEED_t * const signal: Pointer to the signal object which will be initialised
 158:.\source\rte/sc_speed.h ****  * @param const sc_speed_data_t * const value: Pointer to initial value of the application data
 159:.\source\rte/sc_speed.h ****  * @return RC_t: standard return code, currently only RC_SUCCESS
 160:.\source\rte/sc_speed.h ****  *
 161:.\source\rte/sc_speed.h ****  **/
 162:.\source\rte/sc_speed.h **** inline RC_t RTE_SC_SPEED_init( SC_SPEED_t * const signal, const SC_SPEED_data_t * const value )
 163:.\source\rte/sc_speed.h **** {                                                                                                  
 164:.\source\rte/sc_speed.h **** 
 165:.\source\rte/sc_speed.h ****    RC_t ret = RC_SUCCESS;
 166:.\source\rte/sc_speed.h **** 
 167:.\source\rte/sc_speed.h ****    //Set value and raw value
 168:.\source\rte/sc_speed.h ****    signal->value  = *value;
 169:.\source\rte/sc_speed.h ****    signal->age    = 0;
 170:.\source\rte/sc_speed.h ****    signal->status = RTE_SIGNALSTATUS_INITIALIZED;
 171:.\source\rte/sc_speed.h **** 
 172:.\source\rte/sc_speed.h ****    return ret;
 173:.\source\rte/sc_speed.h **** }
 174:.\source\rte/sc_speed.h **** 
 175:.\source\rte/sc_speed.h **** /**************************************************************************************************
 176:.\source\rte/sc_speed.h **** /* Status and timeout control																						*/
 177:.\source\rte/sc_speed.h **** /**************************************************************************************************
 178:.\source\rte/sc_speed.h **** 
 179:.\source\rte/sc_speed.h **** /**
 180:.\source\rte/sc_speed.h ****  *  Returns the current signal status of the passed signal instance.
 181:.\source\rte/sc_speed.h ****  *
 182:.\source\rte/sc_speed.h ****  * @param  SC_SPEED_t * const signal: Pointer to the signal object
 183:.\source\rte/sc_speed.h ****  * @return  sig_status_t: The current signal status
 184:.\source\rte/sc_speed.h ****  *
 185:.\source\rte/sc_speed.h ****  **/
 186:.\source\rte/sc_speed.h **** inline RTE_signalStatus_t RTE_SC_SPEED_getStatus( const SC_SPEED_t * const signal )
 187:.\source\rte/sc_speed.h **** {
 188:.\source\rte/sc_speed.h ****    return signal->status;
 189:.\source\rte/sc_speed.h **** }
 190:.\source\rte/sc_speed.h **** 
 191:.\source\rte/sc_speed.h **** 
 192:.\source\rte/sc_speed.h **** /**
 193:.\source\rte/sc_speed.h ****  *  Sets a new signal status of the passed signal instance by passing the new status.
 194:.\source\rte/sc_speed.h ****  *
 195:.\source\rte/sc_speed.h ****  * @param  SC_SPEED_t * const signal: Pointer to the signal object
 196:.\source\rte/sc_speed.h ****  * @param  const sig_status_t status: New signal status
 197:.\source\rte/sc_speed.h ****  * @return RC_t: standard return code, currently only RC_SUCCESS
 198:.\source\rte/sc_speed.h ****  *
 199:.\source\rte/sc_speed.h ****  */
ARM GAS  C:\Users\MATEOC~1.QUE\AppData\Local\Temp\ccgsXMdh.s 			page 6


 200:.\source\rte/sc_speed.h **** inline RC_t RTE_SC_SPEED_setStatus( SC_SPEED_t * const signal, const RTE_signalStatus_t status )
 201:.\source\rte/sc_speed.h **** {
 202:.\source\rte/sc_speed.h ****    signal->status = status;
 203:.\source\rte/sc_speed.h ****    size_t taskNum=0;
 204:.\source\rte/sc_speed.h ****    
 205:.\source\rte/sc_speed.h ****    //Fire error events in case of invalid state
 206:.\source\rte/sc_speed.h ****    if (signal->status == RTE_SIGNALSTATUS_INVALID)
 207:.\source\rte/sc_speed.h ****    {
 208:.\source\rte/sc_speed.h **** 	    //Pointer to the Taskarray, containing the tasks receiving the onUpdate events
 209:.\source\rte/sc_speed.h **** 		TaskTypeArray* pTaskArray = signal->pSigCfg->onErrorTasks;
 210:.\source\rte/sc_speed.h **** 
 211:.\source\rte/sc_speed.h **** 		if (NULL!=signal->pSigCfg->evOnError && NULL != pTaskArray){
 212:.\source\rte/sc_speed.h **** 			for( taskNum=0 ; taskNum < signal->pSigCfg->onErrorTaskCount ;taskNum++){
 213:.\source\rte/sc_speed.h **** 				TaskType task = (*pTaskArray)[taskNum];
 214:.\source\rte/sc_speed.h **** 				SetEvent( task, signal->pSigCfg->evOnError);
 215:.\source\rte/sc_speed.h **** 			}
 216:.\source\rte/sc_speed.h **** 		}
 217:.\source\rte/sc_speed.h ****    }
 218:.\source\rte/sc_speed.h ****    
 219:.\source\rte/sc_speed.h ****    return RC_SUCCESS;
 220:.\source\rte/sc_speed.h **** }
 221:.\source\rte/sc_speed.h **** 
 222:.\source\rte/sc_speed.h **** 
 223:.\source\rte/sc_speed.h **** /**
 224:.\source\rte/sc_speed.h ****  * Returns the count of refreshing trials (refresh, set or set_raw) that failed.
 225:.\source\rte/sc_speed.h ****  * Prerquisite: The signal is refreshed cyclically
 226:.\source\rte/sc_speed.h ****  *
 227:.\source\rte/sc_speed.h ****  * @param  SC_SPEED_t * const signal: Pointer to the signal object
 228:.\source\rte/sc_speed.h ****  * @return uint32_t: Number of cycles since the signal has been updated for the last time
 229:.\source\rte/sc_speed.h ****  */
 230:.\source\rte/sc_speed.h **** inline uint32_t RTE_SC_SPEED_getAge( const SC_SPEED_t * const signal )
 231:.\source\rte/sc_speed.h **** {
 232:.\source\rte/sc_speed.h ****    return signal->age;
 233:.\source\rte/sc_speed.h **** }
 234:.\source\rte/sc_speed.h **** 
 235:.\source\rte/sc_speed.h **** /**
 236:.\source\rte/sc_speed.h ****  * Should be called by application or driver if no new value can be provided.
 237:.\source\rte/sc_speed.h ****  * @param  SC_SPEED_t * const signal: Pointer to the signal object
 238:.\source\rte/sc_speed.h ****  * @param uint32_t increment: incrementvalue, typically in [ms]
 239:.\source\rte/sc_speed.h ****  * @return void
 240:.\source\rte/sc_speed.h ****  */
 241:.\source\rte/sc_speed.h **** inline void RTE_SC_SPEED_incAge(  SC_SPEED_t * const signal , uint32_t increment)
 242:.\source\rte/sc_speed.h **** {
 243:.\source\rte/sc_speed.h **** 	   //Hack....
 244:.\source\rte/sc_speed.h **** 	   if ( 0xFFFF0000 > (signal->age + increment) )
 245:.\source\rte/sc_speed.h **** 	   {
 246:.\source\rte/sc_speed.h **** 	      signal->age += increment;
 247:.\source\rte/sc_speed.h **** 	   }
 248:.\source\rte/sc_speed.h **** }
 249:.\source\rte/sc_speed.h **** 
 250:.\source\rte/sc_speed.h **** 
 251:.\source\rte/sc_speed.h **** /**************************************************************************************************
 252:.\source\rte/sc_speed.h **** /* Application Data read/write Interface																			*/
 253:.\source\rte/sc_speed.h **** /**************************************************************************************************
 254:.\source\rte/sc_speed.h **** 
 255:.\source\rte/sc_speed.h **** /**
 256:.\source\rte/sc_speed.h ****  * Returns the current application value of the passed signal instance.
ARM GAS  C:\Users\MATEOC~1.QUE\AppData\Local\Temp\ccgsXMdh.s 			page 7


 257:.\source\rte/sc_speed.h ****  *
 258:.\source\rte/sc_speed.h ****  * @param  SC_SPEED_t * const signal: Pointer to the signal object
 259:.\source\rte/sc_speed.h ****  * @return sc_speed_data_t: current value of the application data buffer
 260:.\source\rte/sc_speed.h ****  *
 261:.\source\rte/sc_speed.h ****  **/
 262:.\source\rte/sc_speed.h **** inline SC_SPEED_data_t RTE_SC_SPEED_get( const SC_SPEED_t * const signal )
 263:.\source\rte/sc_speed.h **** {               
 264:.\source\rte/sc_speed.h ****    //Todo: Critical region cannot be protected using return values																						
 265:.\source\rte/sc_speed.h ****    return signal->value;                                                                           
  46              		.loc 2 265 0
  47 0004 514B     		ldr	r3, .L28
  48 0006 1E68     		ldr	r6, [r3]
  49              	.LVL2:
  50              	.LBE48:
  51              	.LBE47:
  52              	.LBB49:
  53              	.LBB50:
 266:.\source\rte/sc_speed.h **** }                                                                                                  
 267:.\source\rte/sc_speed.h ****                                                                                                    
 268:.\source\rte/sc_speed.h **** /**
 269:.\source\rte/sc_speed.h ****  * Returns the current application value of the passed signal instance threadsafe.
 270:.\source\rte/sc_speed.h ****  *
 271:.\source\rte/sc_speed.h ****  * @param  SC_SPEED_t * const signal: Pointer to the signal object
 272:.\source\rte/sc_speed.h ****  * @param  SC_SPEED_data_t* data: Pointer to the return data Pointer to the signal object
 273:.\source\rte/sc_speed.h ****  * @return RC_SUCCESS
 274:.\source\rte/sc_speed.h ****  *
 275:.\source\rte/sc_speed.h ****  **/
 276:.\source\rte/sc_speed.h **** inline RC_t RTE_SC_SPEED_getThreadSafe( const SC_SPEED_t * const signal, SC_SPEED_data_t * const da
 277:.\source\rte/sc_speed.h **** {    
 278:.\source\rte/sc_speed.h ****    if (TRUE == signal->pSigCfg->resourceActive) GetResource(signal->pSigCfg->resource);
 279:.\source\rte/sc_speed.h ****    *data = signal->value;
 280:.\source\rte/sc_speed.h ****    if (TRUE == signal->pSigCfg->resourceActive) ReleaseResource(signal->pSigCfg->resource);        
 281:.\source\rte/sc_speed.h **** 
 282:.\source\rte/sc_speed.h ****    return RC_SUCCESS;                                                                   
 283:.\source\rte/sc_speed.h ****    
 284:.\source\rte/sc_speed.h **** }                                                                                                  
 285:.\source\rte/sc_speed.h ****                                                                                                    
 286:.\source\rte/sc_speed.h **** /**
 287:.\source\rte/sc_speed.h ****  * Sets a new application value to the passed signal instance by passing the new value.
 288:.\source\rte/sc_speed.h ****  * The corresponding driver raw value will be calculated immediately by using the default conversio
 289:.\source\rte/sc_speed.h ****  * signal specific scaling function.
 290:.\source\rte/sc_speed.h ****  * The signal age will be set to 0 and the new status will be 'RTE_SIGNALSTATUS_VALID'.
 291:.\source\rte/sc_speed.h ****  *
 292:.\source\rte/sc_speed.h ****  * @param  SC_SPEED_t * const signal: Pointer to the signal object
 293:.\source\rte/sc_speed.h ****  * @param  sc_speed_data_t const value: value for the application data buffer
 294:.\source\rte/sc_speed.h ****  * @return RC_t: standard return code, currently only RC_SUCCESS
 295:.\source\rte/sc_speed.h ****  *
 296:.\source\rte/sc_speed.h ****  **/
 297:.\source\rte/sc_speed.h **** inline RC_t RTE_SC_SPEED_set(SC_SPEED_t * const signal, const SC_SPEED_data_t value  )
 298:.\source\rte/sc_speed.h **** {
 299:.\source\rte/sc_speed.h **** 
 300:.\source\rte/sc_speed.h ****    RC_t ret = RC_SUCCESS;
 301:.\source\rte/sc_speed.h ****    size_t taskNum=0;
 302:.\source\rte/sc_speed.h **** 
 303:.\source\rte/sc_speed.h **** 
 304:.\source\rte/sc_speed.h ****    if (TRUE == signal->pSigCfg->resourceActive) GetResource(signal->pSigCfg->resource);
 305:.\source\rte/sc_speed.h ****    signal->value  = value;
ARM GAS  C:\Users\MATEOC~1.QUE\AppData\Local\Temp\ccgsXMdh.s 			page 8


 306:.\source\rte/sc_speed.h ****    signal->age    = 0;
 307:.\source\rte/sc_speed.h ****    signal->status = RTE_SIGNALSTATUS_VALID;
 308:.\source\rte/sc_speed.h ****    if (TRUE == signal->pSigCfg->resourceActive) ReleaseResource(signal->pSigCfg->resource);
 309:.\source\rte/sc_speed.h **** 
 310:.\source\rte/sc_speed.h ****    //Pointer to the Taskarray, containing the tasks receiving the onUpdate events
 311:.\source\rte/sc_speed.h ****    TaskTypeArray* pTaskArray = signal->pSigCfg->onUpdateTasks;
 312:.\source\rte/sc_speed.h **** 
 313:.\source\rte/sc_speed.h ****    if (NULL!=signal->pSigCfg->evOnUpdate && NULL != pTaskArray){
 314:.\source\rte/sc_speed.h ****       for( taskNum=0 ; taskNum < signal->pSigCfg->onUpdateTaskCount ;taskNum++){
 315:.\source\rte/sc_speed.h **** 		  
 316:.\source\rte/sc_speed.h ****           TaskType task = (*pTaskArray)[taskNum];
 317:.\source\rte/sc_speed.h **** 	      SetEvent( task, signal->pSigCfg->evOnUpdate);
 318:.\source\rte/sc_speed.h ****       }
 319:.\source\rte/sc_speed.h ****    }
 320:.\source\rte/sc_speed.h **** 
 321:.\source\rte/sc_speed.h ****    return ret;
 322:.\source\rte/sc_speed.h **** }                                                                                                  
 323:.\source\rte/sc_speed.h ****                                                                                                    
 324:.\source\rte/sc_speed.h ****                                                                                                    
 325:.\source\rte/sc_speed.h **** /**************************************************************************************************
 326:.\source\rte/sc_speed.h **** /* Call functions to the connected drivers																			*/
 327:.\source\rte/sc_speed.h **** /**************************************************************************************************
 328:.\source\rte/sc_speed.h **** 
 329:.\source\rte/sc_speed.h ****                                                                                                    
 330:.\source\rte/sc_speed.h **** /**
 331:.\source\rte/sc_speed.h ****  *  Calls the connected driver interface to get a new value.
 332:.\source\rte/sc_speed.h ****  *
 333:.\source\rte/sc_speed.h ****  * @param SC_SPEED_t * const signal: Pointer to the signal object
 334:.\source\rte/sc_speed.h ****  * @return  RC_t: Return value of the driver call
 335:.\source\rte/sc_speed.h ****  *
 336:.\source\rte/sc_speed.h ****  */
 337:.\source\rte/sc_speed.h **** inline RC_t RTE_SC_SPEED_pullPort( SC_SPEED_t * const signal )
 338:.\source\rte/sc_speed.h **** {                                                                                                  
 339:.\source\rte/sc_speed.h ****    RC_t ret = RC_SUCCESS;
 340:.\source\rte/sc_speed.h **** 
 341:.\source\rte/sc_speed.h ****                                                                                                    
 342:.\source\rte/sc_speed.h ****    if ( NULL != signal->pSigCfg->inDriver )
  54              		.loc 2 342 0
  55 0008 DB68     		ldr	r3, [r3, #12]
  56 000a 1A68     		ldr	r2, [r3]
  57 000c 002A     		cmp	r2, #0
  58 000e 38D0     		beq	.L21
  59              	.LBB51:
 343:.\source\rte/sc_speed.h ****    {
 344:.\source\rte/sc_speed.h **** 	  SC_SPEED_data_t value = signal->value;
  60              		.loc 2 344 0
  61 0010 02A8     		add	r0, sp, #8
  62              	.LVL3:
  63 0012 40F8046D 		str	r6, [r0, #-4]!
 345:.\source\rte/sc_speed.h ****       ret = signal->pSigCfg->inDriver(&value);
  64              		.loc 2 345 0
  65 0016 1B68     		ldr	r3, [r3]
  66 0018 9847     		blx	r3
  67              	.LVL4:
 346:.\source\rte/sc_speed.h ****                                                                                                    
 347:.\source\rte/sc_speed.h ****       if ( ret == RC_SUCCESS )                                                                     
  68              		.loc 2 347 0
ARM GAS  C:\Users\MATEOC~1.QUE\AppData\Local\Temp\ccgsXMdh.s 			page 9


  69 001a 0546     		mov	r5, r0
  70 001c D0B9     		cbnz	r0, .L3
  71              	.LVL5:
  72              	.LBB52:
  73              	.LBB53:
 304:.\source\rte/sc_speed.h ****    signal->value  = value;
  74              		.loc 2 304 0
  75 001e 4B4B     		ldr	r3, .L28
  76 0020 DA68     		ldr	r2, [r3, #12]
 305:.\source\rte/sc_speed.h ****    signal->age    = 0;
  77              		.loc 2 305 0
  78 0022 0199     		ldr	r1, [sp, #4]
  79              	.LVL6:
  80 0024 1960     		str	r1, [r3]
 306:.\source\rte/sc_speed.h ****    signal->status = RTE_SIGNALSTATUS_VALID;
  81              		.loc 2 306 0
  82 0026 0021     		movs	r1, #0
  83              	.LVL7:
  84 0028 9960     		str	r1, [r3, #8]
 307:.\source\rte/sc_speed.h ****    if (TRUE == signal->pSigCfg->resourceActive) ReleaseResource(signal->pSigCfg->resource);
  85              		.loc 2 307 0
  86 002a 0221     		movs	r1, #2
  87 002c 1971     		strb	r1, [r3, #4]
 311:.\source\rte/sc_speed.h **** 
  88              		.loc 2 311 0
  89 002e 5769     		ldr	r7, [r2, #20]
  90              	.LVL8:
 313:.\source\rte/sc_speed.h ****       for( taskNum=0 ; taskNum < signal->pSigCfg->onUpdateTaskCount ;taskNum++){
  91              		.loc 2 313 0
  92 0030 9368     		ldr	r3, [r2, #8]
  93 0032 3BB3     		cbz	r3, .L2
  94 0034 3FB9     		cbnz	r7, .L22
  95 0036 25E0     		b	.L2
  96              	.LVL9:
  97              	.L6:
  98              	.LBB54:
 317:.\source\rte/sc_speed.h ****       }
  99              		.loc 2 317 0
 100 0038 9968     		ldr	r1, [r3, #8]
 101 003a 57F82400 		ldr	r0, [r7, r4, lsl #2]
 102 003e FFF7FEFF 		bl	EE_oo_SetEvent
 103              	.LVL10:
 104              	.LBE54:
 314:.\source\rte/sc_speed.h **** 		  
 105              		.loc 2 314 0
 106 0042 0134     		adds	r4, r4, #1
 107              	.LVL11:
 108 0044 00E0     		b	.L5
 109              	.LVL12:
 110              	.L22:
 313:.\source\rte/sc_speed.h ****       for( taskNum=0 ; taskNum < signal->pSigCfg->onUpdateTaskCount ;taskNum++){
 111              		.loc 2 313 0
 112 0046 0024     		movs	r4, #0
 113              	.LVL13:
 114              	.L5:
 314:.\source\rte/sc_speed.h **** 		  
 115              		.loc 2 314 0
ARM GAS  C:\Users\MATEOC~1.QUE\AppData\Local\Temp\ccgsXMdh.s 			page 10


 116 0048 404B     		ldr	r3, .L28
 117 004a DB68     		ldr	r3, [r3, #12]
 118 004c 1A69     		ldr	r2, [r3, #16]
 119 004e 9442     		cmp	r4, r2
 120 0050 F2D3     		bcc	.L6
 121 0052 17E0     		b	.L2
 122              	.LVL14:
 123              	.L3:
 124              	.LBE53:
 125              	.LBE52:
 126              	.LBB55:
 127              	.LBB56:
 202:.\source\rte/sc_speed.h ****    size_t taskNum=0;
 128              		.loc 2 202 0
 129 0054 3D4B     		ldr	r3, .L28
 130 0056 0322     		movs	r2, #3
 131 0058 1A71     		strb	r2, [r3, #4]
 132              	.LVL15:
 133              	.LBB57:
 209:.\source\rte/sc_speed.h **** 
 134              		.loc 2 209 0
 135 005a DB68     		ldr	r3, [r3, #12]
 136 005c DF69     		ldr	r7, [r3, #28]
 137              	.LVL16:
 211:.\source\rte/sc_speed.h **** 			for( taskNum=0 ; taskNum < signal->pSigCfg->onErrorTaskCount ;taskNum++){
 138              		.loc 2 211 0
 139 005e DB68     		ldr	r3, [r3, #12]
 140 0060 83B1     		cbz	r3, .L2
 141 0062 3FB9     		cbnz	r7, .L23
 142 0064 0EE0     		b	.L2
 143              	.LVL17:
 144              	.L8:
 145              	.LBB58:
 214:.\source\rte/sc_speed.h **** 			}
 146              		.loc 2 214 0
 147 0066 D968     		ldr	r1, [r3, #12]
 148 0068 57F82400 		ldr	r0, [r7, r4, lsl #2]
 149 006c FFF7FEFF 		bl	EE_oo_SetEvent
 150              	.LVL18:
 151              	.LBE58:
 212:.\source\rte/sc_speed.h **** 				TaskType task = (*pTaskArray)[taskNum];
 152              		.loc 2 212 0
 153 0070 0134     		adds	r4, r4, #1
 154              	.LVL19:
 155 0072 00E0     		b	.L7
 156              	.LVL20:
 157              	.L23:
 211:.\source\rte/sc_speed.h **** 			for( taskNum=0 ; taskNum < signal->pSigCfg->onErrorTaskCount ;taskNum++){
 158              		.loc 2 211 0
 159 0074 0024     		movs	r4, #0
 160              	.LVL21:
 161              	.L7:
 212:.\source\rte/sc_speed.h **** 				TaskType task = (*pTaskArray)[taskNum];
 162              		.loc 2 212 0
 163 0076 354B     		ldr	r3, .L28
 164 0078 DB68     		ldr	r3, [r3, #12]
 165 007a 9A69     		ldr	r2, [r3, #24]
ARM GAS  C:\Users\MATEOC~1.QUE\AppData\Local\Temp\ccgsXMdh.s 			page 11


 166 007c 9442     		cmp	r4, r2
 167 007e F2D3     		bcc	.L8
 168 0080 00E0     		b	.L2
 169              	.LVL22:
 170              	.L21:
 171              	.LBE57:
 172              	.LBE56:
 173              	.LBE55:
 174              	.LBE51:
 339:.\source\rte/sc_speed.h **** 
 175              		.loc 2 339 0
 176 0082 0025     		movs	r5, #0
 177              	.LVL23:
 178              	.L2:
 179              	.LBE50:
 180              	.LBE49:
  42:source\asw/swc_engine.c **** 	
  43:source\asw/swc_engine.c **** 	
  44:source\asw/swc_engine.c **** 	/* USER CODE START ENGINE_setspeed_run */
  45:source\asw/swc_engine.c ****     
  46:source\asw/swc_engine.c ****     SC_SPEED_data_t targetspeed = SC_SPEED_INIT_DATA;
  47:source\asw/swc_engine.c ****     
  48:source\asw/swc_engine.c ****     //Read in targetspeed
  49:source\asw/swc_engine.c ****     targetspeed = RTE_SC_SPEED_get(&SO_TARGETSPEED_signal);
  50:source\asw/swc_engine.c ****     
  51:source\asw/swc_engine.c ****     RC_t res = RTE_SC_SPEED_pullPort(&SO_TARGETSPEED_signal);
  52:source\asw/swc_engine.c ****     if (RC_SUCCESS == res)
 181              		.loc 1 52 0
 182 0084 002D     		cmp	r5, #0
 183 0086 5FD1     		bne	.L1
  53:source\asw/swc_engine.c ****     {
  54:source\asw/swc_engine.c ****         UART_LOG_PutChar(targetspeed.rpm);
 184              		.loc 1 54 0
 185 0088 F4B2     		uxtb	r4, r6
 186 008a 2046     		mov	r0, r4
 187 008c FFF7FEFF 		bl	UART_LOG_PutChar
 188              	.LVL24:
  55:source\asw/swc_engine.c ****         LED_RGB_Set(0,targetspeed.rpm,0); //turn on green channel of RGB led with targetspeed as PW
 189              		.loc 1 55 0
 190 0090 0022     		movs	r2, #0
 191 0092 2146     		mov	r1, r4
 192 0094 1046     		mov	r0, r2
 193 0096 FFF7FEFF 		bl	LED_RGB_Set
 194              	.LVL25:
 195              	.LBB59:
 196              	.LBB60:
 304:.\source\rte/sc_speed.h ****    signal->value  = value;
 197              		.loc 2 304 0
 198 009a 2C4B     		ldr	r3, .L28
 199 009c DA68     		ldr	r2, [r3, #12]
 305:.\source\rte/sc_speed.h ****    signal->age    = 0;
 200              		.loc 2 305 0
 201 009e 1E60     		str	r6, [r3]
 306:.\source\rte/sc_speed.h ****    signal->status = RTE_SIGNALSTATUS_VALID;
 202              		.loc 2 306 0
 203 00a0 0021     		movs	r1, #0
 204 00a2 9960     		str	r1, [r3, #8]
ARM GAS  C:\Users\MATEOC~1.QUE\AppData\Local\Temp\ccgsXMdh.s 			page 12


 307:.\source\rte/sc_speed.h ****    if (TRUE == signal->pSigCfg->resourceActive) ReleaseResource(signal->pSigCfg->resource);
 205              		.loc 2 307 0
 206 00a4 0221     		movs	r1, #2
 207 00a6 1971     		strb	r1, [r3, #4]
 311:.\source\rte/sc_speed.h **** 
 208              		.loc 2 311 0
 209 00a8 5569     		ldr	r5, [r2, #20]
 210              	.LVL26:
 313:.\source\rte/sc_speed.h ****       for( taskNum=0 ; taskNum < signal->pSigCfg->onUpdateTaskCount ;taskNum++){
 211              		.loc 2 313 0
 212 00aa 9368     		ldr	r3, [r2, #8]
 213 00ac 73B1     		cbz	r3, .L10
 214 00ae 3DB9     		cbnz	r5, .L24
 215 00b0 0CE0     		b	.L10
 216              	.LVL27:
 217              	.L12:
 218              	.LBB61:
 317:.\source\rte/sc_speed.h ****       }
 219              		.loc 2 317 0
 220 00b2 9968     		ldr	r1, [r3, #8]
 221 00b4 55F82400 		ldr	r0, [r5, r4, lsl #2]
 222 00b8 FFF7FEFF 		bl	EE_oo_SetEvent
 223              	.LVL28:
 224              	.LBE61:
 314:.\source\rte/sc_speed.h **** 		  
 225              		.loc 2 314 0
 226 00bc 0134     		adds	r4, r4, #1
 227              	.LVL29:
 228 00be 00E0     		b	.L11
 229              	.LVL30:
 230              	.L24:
 313:.\source\rte/sc_speed.h ****       for( taskNum=0 ; taskNum < signal->pSigCfg->onUpdateTaskCount ;taskNum++){
 231              		.loc 2 313 0
 232 00c0 0024     		movs	r4, #0
 233              	.LVL31:
 234              	.L11:
 314:.\source\rte/sc_speed.h **** 		  
 235              		.loc 2 314 0
 236 00c2 224B     		ldr	r3, .L28
 237 00c4 DB68     		ldr	r3, [r3, #12]
 238 00c6 1A69     		ldr	r2, [r3, #16]
 239 00c8 9442     		cmp	r4, r2
 240 00ca F2D3     		bcc	.L12
 241              	.LVL32:
 242              	.L10:
 243              	.LBE60:
 244              	.LBE59:
 245              	.LBB62:
 246              	.LBB63:
 342:.\source\rte/sc_speed.h ****    {
 247              		.loc 2 342 0
 248 00cc 1F4B     		ldr	r3, .L28
 249 00ce DB68     		ldr	r3, [r3, #12]
 250 00d0 1A68     		ldr	r2, [r3]
 251 00d2 002A     		cmp	r2, #0
 252 00d4 38D0     		beq	.L1
 253              	.LBB64:
ARM GAS  C:\Users\MATEOC~1.QUE\AppData\Local\Temp\ccgsXMdh.s 			page 13


 344:.\source\rte/sc_speed.h ****       ret = signal->pSigCfg->inDriver(&value);
 254              		.loc 2 344 0
 255 00d6 1D4A     		ldr	r2, .L28
 256 00d8 1268     		ldr	r2, [r2]
 257 00da 02A8     		add	r0, sp, #8
 258 00dc 40F8042D 		str	r2, [r0, #-4]!
 345:.\source\rte/sc_speed.h ****                                                                                                    
 259              		.loc 2 345 0
 260 00e0 1B68     		ldr	r3, [r3]
 261 00e2 9847     		blx	r3
 262              	.LVL33:
 263              		.loc 2 347 0
 264 00e4 D0B9     		cbnz	r0, .L14
 265              	.LVL34:
 266              	.LBB65:
 267              	.LBB66:
 304:.\source\rte/sc_speed.h ****    signal->value  = value;
 268              		.loc 2 304 0
 269 00e6 194B     		ldr	r3, .L28
 270 00e8 DA68     		ldr	r2, [r3, #12]
 305:.\source\rte/sc_speed.h ****    signal->age    = 0;
 271              		.loc 2 305 0
 272 00ea 0199     		ldr	r1, [sp, #4]
 273              	.LVL35:
 274 00ec 1960     		str	r1, [r3]
 306:.\source\rte/sc_speed.h ****    signal->status = RTE_SIGNALSTATUS_VALID;
 275              		.loc 2 306 0
 276 00ee 0021     		movs	r1, #0
 277              	.LVL36:
 278 00f0 9960     		str	r1, [r3, #8]
 307:.\source\rte/sc_speed.h ****    if (TRUE == signal->pSigCfg->resourceActive) ReleaseResource(signal->pSigCfg->resource);
 279              		.loc 2 307 0
 280 00f2 0221     		movs	r1, #2
 281 00f4 1971     		strb	r1, [r3, #4]
 311:.\source\rte/sc_speed.h **** 
 282              		.loc 2 311 0
 283 00f6 5569     		ldr	r5, [r2, #20]
 284              	.LVL37:
 313:.\source\rte/sc_speed.h ****       for( taskNum=0 ; taskNum < signal->pSigCfg->onUpdateTaskCount ;taskNum++){
 285              		.loc 2 313 0
 286 00f8 9368     		ldr	r3, [r2, #8]
 287 00fa 2BB3     		cbz	r3, .L1
 288 00fc 3DB9     		cbnz	r5, .L25
 289 00fe 23E0     		b	.L1
 290              	.LVL38:
 291              	.L17:
 292              	.LBB67:
 317:.\source\rte/sc_speed.h ****       }
 293              		.loc 2 317 0
 294 0100 9968     		ldr	r1, [r3, #8]
 295 0102 55F82400 		ldr	r0, [r5, r4, lsl #2]
 296 0106 FFF7FEFF 		bl	EE_oo_SetEvent
 297              	.LVL39:
 298              	.LBE67:
 314:.\source\rte/sc_speed.h **** 		  
 299              		.loc 2 314 0
 300 010a 0134     		adds	r4, r4, #1
ARM GAS  C:\Users\MATEOC~1.QUE\AppData\Local\Temp\ccgsXMdh.s 			page 14


 301              	.LVL40:
 302 010c 00E0     		b	.L16
 303              	.LVL41:
 304              	.L25:
 313:.\source\rte/sc_speed.h ****       for( taskNum=0 ; taskNum < signal->pSigCfg->onUpdateTaskCount ;taskNum++){
 305              		.loc 2 313 0
 306 010e 0024     		movs	r4, #0
 307              	.LVL42:
 308              	.L16:
 314:.\source\rte/sc_speed.h **** 		  
 309              		.loc 2 314 0
 310 0110 0E4B     		ldr	r3, .L28
 311 0112 DB68     		ldr	r3, [r3, #12]
 312 0114 1A69     		ldr	r2, [r3, #16]
 313 0116 9442     		cmp	r4, r2
 314 0118 F2D3     		bcc	.L17
 315 011a 15E0     		b	.L1
 316              	.LVL43:
 317              	.L14:
 318              	.LBE66:
 319              	.LBE65:
 320              	.LBB68:
 321              	.LBB69:
 202:.\source\rte/sc_speed.h ****    size_t taskNum=0;
 322              		.loc 2 202 0
 323 011c 0B4B     		ldr	r3, .L28
 324 011e 0322     		movs	r2, #3
 325 0120 1A71     		strb	r2, [r3, #4]
 326              	.LVL44:
 327              	.LBB70:
 209:.\source\rte/sc_speed.h **** 
 328              		.loc 2 209 0
 329 0122 DB68     		ldr	r3, [r3, #12]
 330 0124 DD69     		ldr	r5, [r3, #28]
 331              	.LVL45:
 211:.\source\rte/sc_speed.h **** 			for( taskNum=0 ; taskNum < signal->pSigCfg->onErrorTaskCount ;taskNum++){
 332              		.loc 2 211 0
 333 0126 DB68     		ldr	r3, [r3, #12]
 334 0128 73B1     		cbz	r3, .L1
 335 012a 3DB9     		cbnz	r5, .L26
 336 012c 0CE0     		b	.L1
 337              	.LVL46:
 338              	.L19:
 339              	.LBB71:
 214:.\source\rte/sc_speed.h **** 			}
 340              		.loc 2 214 0
 341 012e D968     		ldr	r1, [r3, #12]
 342 0130 55F82400 		ldr	r0, [r5, r4, lsl #2]
 343 0134 FFF7FEFF 		bl	EE_oo_SetEvent
 344              	.LVL47:
 345              	.LBE71:
 212:.\source\rte/sc_speed.h **** 				TaskType task = (*pTaskArray)[taskNum];
 346              		.loc 2 212 0
 347 0138 0134     		adds	r4, r4, #1
 348              	.LVL48:
 349 013a 00E0     		b	.L18
 350              	.LVL49:
ARM GAS  C:\Users\MATEOC~1.QUE\AppData\Local\Temp\ccgsXMdh.s 			page 15


 351              	.L26:
 211:.\source\rte/sc_speed.h **** 			for( taskNum=0 ; taskNum < signal->pSigCfg->onErrorTaskCount ;taskNum++){
 352              		.loc 2 211 0
 353 013c 0024     		movs	r4, #0
 354              	.LVL50:
 355              	.L18:
 212:.\source\rte/sc_speed.h **** 				TaskType task = (*pTaskArray)[taskNum];
 356              		.loc 2 212 0
 357 013e 034B     		ldr	r3, .L28
 358 0140 DB68     		ldr	r3, [r3, #12]
 359 0142 9A69     		ldr	r2, [r3, #24]
 360 0144 9442     		cmp	r4, r2
 361 0146 F2D3     		bcc	.L19
 362              	.LVL51:
 363              	.L1:
 364              	.LBE70:
 365              	.LBE69:
 366              	.LBE68:
 367              	.LBE64:
 368              	.LBE63:
 369              	.LBE62:
  56:source\asw/swc_engine.c ****     }
  57:source\asw/swc_engine.c ****     else
  58:source\asw/swc_engine.c ****     {
  59:source\asw/swc_engine.c ****         //Some error handling
  60:source\asw/swc_engine.c ****         res = RC_ERROR_BUFFER_EMTPY;
  61:source\asw/swc_engine.c ****         return;
  62:source\asw/swc_engine.c ****     }
  63:source\asw/swc_engine.c **** 
  64:source\asw/swc_engine.c ****     RTE_SC_SPEED_set(&SO_TARGETSPEED_signal, targetspeed);
  65:source\asw/swc_engine.c ****     RTE_SC_SPEED_pullPort(&SO_TARGETSPEED_signal);
  66:source\asw/swc_engine.c ****     /* USER CODE END ENGINE_setspeed_run */
  67:source\asw/swc_engine.c **** }
 370              		.loc 1 67 0
 371 0148 03B0     		add	sp, sp, #12
 372              		.cfi_def_cfa_offset 20
 373              		@ sp needed
 374 014a F0BD     		pop	{r4, r5, r6, r7, pc}
 375              	.L29:
 376              		.align	2
 377              	.L28:
 378 014c 00000000 		.word	SO_TARGETSPEED_signal
 379              		.cfi_endproc
 380              	.LFE130:
 381              		.size	ENGINE_setEngine_run, .-ENGINE_setEngine_run
 382              		.section	.text.ENGINE_setBrakeLight_run,"ax",%progbits
 383              		.align	2
 384              		.global	ENGINE_setBrakeLight_run
 385              		.thumb
 386              		.thumb_func
 387              		.type	ENGINE_setBrakeLight_run, %function
 388              	ENGINE_setBrakeLight_run:
 389              	.LFB131:
  68:source\asw/swc_engine.c **** 
  69:source\asw/swc_engine.c **** /*
  70:source\asw/swc_engine.c **** * component: swc_engine
  71:source\asw/swc_engine.c **** * cycletime: 0
ARM GAS  C:\Users\MATEOC~1.QUE\AppData\Local\Temp\ccgsXMdh.s 			page 16


  72:source\asw/swc_engine.c **** * description: Runnable that sets the engine brake light
  73:source\asw/swc_engine.c **** * events: 
  74:source\asw/swc_engine.c **** * name: ENGINE_setBrakeLight_run
  75:source\asw/swc_engine.c **** * shortname: setBrakeLight
  76:source\asw/swc_engine.c **** * signalIN: so_targetspeed
  77:source\asw/swc_engine.c **** * signalOUT: 
  78:source\asw/swc_engine.c **** * task: tsk_io
  79:source\asw/swc_engine.c **** */
  80:source\asw/swc_engine.c **** void ENGINE_setBrakeLight_run(RTE_event ev){
 390              		.loc 1 80 0
 391              		.cfi_startproc
 392              		@ args = 0, pretend = 0, frame = 8
 393              		@ frame_needed = 0, uses_anonymous_args = 0
 394              	.LVL52:
 395 0000 F0B5     		push	{r4, r5, r6, r7, lr}
 396              		.cfi_def_cfa_offset 20
 397              		.cfi_offset 4, -20
 398              		.cfi_offset 5, -16
 399              		.cfi_offset 6, -12
 400              		.cfi_offset 7, -8
 401              		.cfi_offset 14, -4
 402 0002 83B0     		sub	sp, sp, #12
 403              		.cfi_def_cfa_offset 32
 404              	.LVL53:
 405              	.LBB72:
 406              	.LBB73:
 265:.\source\rte/sc_speed.h **** }                                                                                                  
 407              		.loc 2 265 0
 408 0004 264B     		ldr	r3, .L46
 409 0006 1E68     		ldr	r6, [r3]
 410              	.LVL54:
 411              	.LBE73:
 412              	.LBE72:
 413              	.LBB74:
 414              	.LBB75:
 342:.\source\rte/sc_speed.h ****    {
 415              		.loc 2 342 0
 416 0008 DB68     		ldr	r3, [r3, #12]
 417 000a 1A68     		ldr	r2, [r3]
 418 000c 002A     		cmp	r2, #0
 419 000e 38D0     		beq	.L42
 420              	.LBB76:
 344:.\source\rte/sc_speed.h ****       ret = signal->pSigCfg->inDriver(&value);
 421              		.loc 2 344 0
 422 0010 02A8     		add	r0, sp, #8
 423              	.LVL55:
 424 0012 40F8046D 		str	r6, [r0, #-4]!
 345:.\source\rte/sc_speed.h ****                                                                                                    
 425              		.loc 2 345 0
 426 0016 1B68     		ldr	r3, [r3]
 427 0018 9847     		blx	r3
 428              	.LVL56:
 429              		.loc 2 347 0
 430 001a 0546     		mov	r5, r0
 431 001c D0B9     		cbnz	r0, .L32
 432              	.LVL57:
 433              	.LBB77:
ARM GAS  C:\Users\MATEOC~1.QUE\AppData\Local\Temp\ccgsXMdh.s 			page 17


 434              	.LBB78:
 304:.\source\rte/sc_speed.h ****    signal->value  = value;
 435              		.loc 2 304 0
 436 001e 204B     		ldr	r3, .L46
 437 0020 DA68     		ldr	r2, [r3, #12]
 305:.\source\rte/sc_speed.h ****    signal->age    = 0;
 438              		.loc 2 305 0
 439 0022 0199     		ldr	r1, [sp, #4]
 440              	.LVL58:
 441 0024 1960     		str	r1, [r3]
 306:.\source\rte/sc_speed.h ****    signal->status = RTE_SIGNALSTATUS_VALID;
 442              		.loc 2 306 0
 443 0026 0021     		movs	r1, #0
 444              	.LVL59:
 445 0028 9960     		str	r1, [r3, #8]
 307:.\source\rte/sc_speed.h ****    if (TRUE == signal->pSigCfg->resourceActive) ReleaseResource(signal->pSigCfg->resource);
 446              		.loc 2 307 0
 447 002a 0221     		movs	r1, #2
 448 002c 1971     		strb	r1, [r3, #4]
 311:.\source\rte/sc_speed.h **** 
 449              		.loc 2 311 0
 450 002e 5769     		ldr	r7, [r2, #20]
 451              	.LVL60:
 313:.\source\rte/sc_speed.h ****       for( taskNum=0 ; taskNum < signal->pSigCfg->onUpdateTaskCount ;taskNum++){
 452              		.loc 2 313 0
 453 0030 9368     		ldr	r3, [r2, #8]
 454 0032 3BB3     		cbz	r3, .L31
 455 0034 3FB9     		cbnz	r7, .L43
 456 0036 25E0     		b	.L31
 457              	.LVL61:
 458              	.L35:
 459              	.LBB79:
 317:.\source\rte/sc_speed.h ****       }
 460              		.loc 2 317 0
 461 0038 9968     		ldr	r1, [r3, #8]
 462 003a 57F82400 		ldr	r0, [r7, r4, lsl #2]
 463 003e FFF7FEFF 		bl	EE_oo_SetEvent
 464              	.LVL62:
 465              	.LBE79:
 314:.\source\rte/sc_speed.h **** 		  
 466              		.loc 2 314 0
 467 0042 0134     		adds	r4, r4, #1
 468              	.LVL63:
 469 0044 00E0     		b	.L34
 470              	.LVL64:
 471              	.L43:
 313:.\source\rte/sc_speed.h ****       for( taskNum=0 ; taskNum < signal->pSigCfg->onUpdateTaskCount ;taskNum++){
 472              		.loc 2 313 0
 473 0046 0024     		movs	r4, #0
 474              	.LVL65:
 475              	.L34:
 314:.\source\rte/sc_speed.h **** 		  
 476              		.loc 2 314 0
 477 0048 154B     		ldr	r3, .L46
 478 004a DB68     		ldr	r3, [r3, #12]
 479 004c 1A69     		ldr	r2, [r3, #16]
 480 004e 9442     		cmp	r4, r2
ARM GAS  C:\Users\MATEOC~1.QUE\AppData\Local\Temp\ccgsXMdh.s 			page 18


 481 0050 F2D3     		bcc	.L35
 482 0052 17E0     		b	.L31
 483              	.LVL66:
 484              	.L32:
 485              	.LBE78:
 486              	.LBE77:
 487              	.LBB80:
 488              	.LBB81:
 202:.\source\rte/sc_speed.h ****    size_t taskNum=0;
 489              		.loc 2 202 0
 490 0054 124B     		ldr	r3, .L46
 491 0056 0322     		movs	r2, #3
 492 0058 1A71     		strb	r2, [r3, #4]
 493              	.LVL67:
 494              	.LBB82:
 209:.\source\rte/sc_speed.h **** 
 495              		.loc 2 209 0
 496 005a DB68     		ldr	r3, [r3, #12]
 497 005c DF69     		ldr	r7, [r3, #28]
 498              	.LVL68:
 211:.\source\rte/sc_speed.h **** 			for( taskNum=0 ; taskNum < signal->pSigCfg->onErrorTaskCount ;taskNum++){
 499              		.loc 2 211 0
 500 005e DB68     		ldr	r3, [r3, #12]
 501 0060 83B1     		cbz	r3, .L31
 502 0062 3FB9     		cbnz	r7, .L44
 503 0064 0EE0     		b	.L31
 504              	.LVL69:
 505              	.L37:
 506              	.LBB83:
 214:.\source\rte/sc_speed.h **** 			}
 507              		.loc 2 214 0
 508 0066 D968     		ldr	r1, [r3, #12]
 509 0068 57F82400 		ldr	r0, [r7, r4, lsl #2]
 510 006c FFF7FEFF 		bl	EE_oo_SetEvent
 511              	.LVL70:
 512              	.LBE83:
 212:.\source\rte/sc_speed.h **** 				TaskType task = (*pTaskArray)[taskNum];
 513              		.loc 2 212 0
 514 0070 0134     		adds	r4, r4, #1
 515              	.LVL71:
 516 0072 00E0     		b	.L36
 517              	.LVL72:
 518              	.L44:
 211:.\source\rte/sc_speed.h **** 			for( taskNum=0 ; taskNum < signal->pSigCfg->onErrorTaskCount ;taskNum++){
 519              		.loc 2 211 0
 520 0074 0024     		movs	r4, #0
 521              	.LVL73:
 522              	.L36:
 212:.\source\rte/sc_speed.h **** 				TaskType task = (*pTaskArray)[taskNum];
 523              		.loc 2 212 0
 524 0076 0A4B     		ldr	r3, .L46
 525 0078 DB68     		ldr	r3, [r3, #12]
 526 007a 9A69     		ldr	r2, [r3, #24]
 527 007c 9442     		cmp	r4, r2
 528 007e F2D3     		bcc	.L37
 529 0080 00E0     		b	.L31
 530              	.LVL74:
ARM GAS  C:\Users\MATEOC~1.QUE\AppData\Local\Temp\ccgsXMdh.s 			page 19


 531              	.L42:
 532              	.LBE82:
 533              	.LBE81:
 534              	.LBE80:
 535              	.LBE76:
 339:.\source\rte/sc_speed.h **** 
 536              		.loc 2 339 0
 537 0082 0025     		movs	r5, #0
 538              	.LVL75:
 539              	.L31:
 540              	.LBE75:
 541              	.LBE74:
  81:source\asw/swc_engine.c **** 	
  82:source\asw/swc_engine.c **** 	/* USER CODE START ENGINE_setBrakeLight_run */
  83:source\asw/swc_engine.c ****     SC_SPEED_data_t targetspeed = SC_SPEED_INIT_DATA;
  84:source\asw/swc_engine.c ****     
  85:source\asw/swc_engine.c ****     //Read in targetspeed
  86:source\asw/swc_engine.c ****     targetspeed = RTE_SC_SPEED_get(&SO_TARGETSPEED_signal);
  87:source\asw/swc_engine.c ****     
  88:source\asw/swc_engine.c ****     RC_t res = RTE_SC_SPEED_pullPort(&SO_TARGETSPEED_signal);
  89:source\asw/swc_engine.c ****     if (RC_SUCCESS == res)
 542              		.loc 1 89 0
 543 0084 55B9     		cbnz	r5, .L30
 544              	.LVL76:
  90:source\asw/swc_engine.c ****     {
  91:source\asw/swc_engine.c ****         if(targetspeed.rpm == 5) // if joystick is in the middle position turn on led
 545              		.loc 1 91 0
 546 0086 052E     		cmp	r6, #5
 547 0088 04D1     		bne	.L39
  92:source\asw/swc_engine.c ****         {
  93:source\asw/swc_engine.c ****             LED_Set(LED_GREEN,LED_ON); // red led on
 548              		.loc 1 93 0
 549 008a 0121     		movs	r1, #1
 550 008c 0220     		movs	r0, #2
 551 008e FFF7FEFF 		bl	LED_Set
 552              	.LVL77:
 553 0092 03E0     		b	.L30
 554              	.L39:
  94:source\asw/swc_engine.c ****         }
  95:source\asw/swc_engine.c ****         else
  96:source\asw/swc_engine.c ****         {
  97:source\asw/swc_engine.c ****             LED_Set(LED_GREEN,LED_OFF);
 555              		.loc 1 97 0
 556 0094 0021     		movs	r1, #0
 557 0096 0220     		movs	r0, #2
 558 0098 FFF7FEFF 		bl	LED_Set
 559              	.LVL78:
 560              	.L30:
  98:source\asw/swc_engine.c ****         }
  99:source\asw/swc_engine.c ****     }
 100:source\asw/swc_engine.c ****     else
 101:source\asw/swc_engine.c ****     {
 102:source\asw/swc_engine.c ****         //Some error handling
 103:source\asw/swc_engine.c ****         res = RC_ERROR_BUFFER_EMTPY;
 104:source\asw/swc_engine.c ****         return;
 105:source\asw/swc_engine.c ****     }
 106:source\asw/swc_engine.c ****     /* USER CODE END ENGINE_setBrakeLight_run */
ARM GAS  C:\Users\MATEOC~1.QUE\AppData\Local\Temp\ccgsXMdh.s 			page 20


 107:source\asw/swc_engine.c **** }
 561              		.loc 1 107 0
 562 009c 03B0     		add	sp, sp, #12
 563              		.cfi_def_cfa_offset 20
 564              		@ sp needed
 565 009e F0BD     		pop	{r4, r5, r6, r7, pc}
 566              	.LVL79:
 567              	.L47:
 568              		.align	2
 569              	.L46:
 570 00a0 00000000 		.word	SO_TARGETSPEED_signal
 571              		.cfi_endproc
 572              	.LFE131:
 573              		.size	ENGINE_setBrakeLight_run, .-ENGINE_setBrakeLight_run
 574              		.text
 575              	.Letext0:
 576              		.file 3 "c:\\program files (x86)\\cypress\\psoc creator\\4.4\\psoc creator\\import\\gnu\\arm\\5.4.
 577              		.file 4 "c:\\program files (x86)\\cypress\\psoc creator\\4.4\\psoc creator\\import\\gnu\\arm\\5.4.
 578              		.file 5 "c:\\program files (x86)\\cypress\\psoc creator\\4.4\\psoc creator\\import\\gnu\\arm\\5.4.
 579              		.file 6 "Generated_Source\\PSoC5/ErikaOS_common_ee_types.inc"
 580              		.file 7 "Generated_Source\\PSoC5/ErikaOS_cortex_mx_ee_cpu.inc"
 581              		.file 8 "Generated_Source\\PSoC5/ErikaOS_ee_oo_common.inc"
 582              		.file 9 ".\\source\\bsw/global.h"
 583              		.file 10 ".\\source\\rte/rte_types.h"
 584              		.file 11 ".\\source\\rte/rte.h"
 585              		.file 12 ".\\source\\rte/sc_speed_type.h"
 586              		.file 13 ".\\source\\bsw\\LabBoard/led.h"
 587              		.file 14 "Generated_Source\\PSoC5/ErikaOS_ee_oo_intfunc.inc"
 588              		.file 15 "Generated_Source\\PSoC5/ErikaOS_cortex_mx_ee_context.inc"
 589              		.file 16 "Generated_Source\\PSoC5/ErikaOS_common_ee_primitives.inc"
 590              		.file 17 "Generated_Source\\PSoC5/core_cm3.h"
 591              		.file 18 ".\\source\\rte/sp_common.h"
 592              		.file 19 "Generated_Source\\PSoC5/ErikaOS_ee_oo_kernel.inc"
 593              		.file 20 "Generated_Source\\PSoC5/UART_LOG.h"