ARM GAS  C:\Users\MATEOC~1.QUE\AppData\Local\Temp\cclqpYd3.s 			page 1


   1              		.syntax unified
   2              		.cpu cortex-m3
   3              		.fpu softvfp
   4              		.eabi_attribute 20, 1
   5              		.eabi_attribute 21, 1
   6              		.eabi_attribute 23, 3
   7              		.eabi_attribute 24, 1
   8              		.eabi_attribute 25, 1
   9              		.eabi_attribute 26, 1
  10              		.eabi_attribute 30, 1
  11              		.eabi_attribute 34, 1
  12              		.eabi_attribute 18, 4
  13              		.thumb
  14              		.syntax unified
  15              		.file	"swc_control.c"
  16              		.text
  17              	.Ltext0:
  18              		.cfi_sections	.debug_frame
  19              		.section	.text.CONTROL_calcControl_run,"ax",%progbits
  20              		.align	2
  21              		.global	CONTROL_calcControl_run
  22              		.thumb
  23              		.thumb_func
  24              		.type	CONTROL_calcControl_run, %function
  25              	CONTROL_calcControl_run:
  26              	.LFB130:
  27              		.file 1 "source\\asw\\swc_control.c"
   1:source\asw/swc_control.c **** 
   2:source\asw/swc_control.c **** 
   3:source\asw/swc_control.c **** /*
   4:source\asw/swc_control.c ****  * Filename: swc_control.c
   5:source\asw/swc_control.c ****  *
   6:source\asw/swc_control.c ****  * Author: Autogenerated by H-DA RTE Generator, (c) Prof. Fromm
   7:source\asw/swc_control.c ****  */
   8:source\asw/swc_control.c **** 
   9:source\asw/swc_control.c **** #include "project.h"
  10:source\asw/swc_control.c **** #include "global.h"
  11:source\asw/swc_control.c **** #include "rte.h"
  12:source\asw/swc_control.c **** #include "rte_types.h"
  13:source\asw/swc_control.c **** #include "swc_control.h"
  14:source\asw/swc_control.c **** 
  15:source\asw/swc_control.c **** 
  16:source\asw/swc_control.c **** 
  17:source\asw/swc_control.c **** /* USER CODE START SWC_CONTROL_INCLUDE */
  18:source\asw/swc_control.c **** #define MAX_AGE 3 // max age of signal allowed (cycles)
  19:source\asw/swc_control.c **** /* USER CODE END SWC_CONTROL_INCLUDE */
  20:source\asw/swc_control.c **** 
  21:source\asw/swc_control.c **** 
  22:source\asw/swc_control.c **** #include "sp_common.h"
  23:source\asw/swc_control.c **** 
  24:source\asw/swc_control.c **** /* USER CODE START SWC_CONTROL_USERDEFINITIONS */
  25:source\asw/swc_control.c **** 
  26:source\asw/swc_control.c **** /* USER CODE END SWC_CONTROL_USERDEFINITIONS */
  27:source\asw/swc_control.c **** 
  28:source\asw/swc_control.c **** 
  29:source\asw/swc_control.c **** 
  30:source\asw/swc_control.c **** /*
ARM GAS  C:\Users\MATEOC~1.QUE\AppData\Local\Temp\cclqpYd3.s 			page 2


  31:source\asw/swc_control.c **** * component: swc_control
  32:source\asw/swc_control.c **** * cycletime: 0
  33:source\asw/swc_control.c **** * description: Runnable which translates joystick position into targetspeed for engines
  34:source\asw/swc_control.c **** * events: ev_joystick_onData
  35:source\asw/swc_control.c **** * name: CONTROL_calcControl_run
  36:source\asw/swc_control.c **** * shortname: calcControl
  37:source\asw/swc_control.c **** * signalIN: so_joystick
  38:source\asw/swc_control.c **** * signalOUT: so_targetspeed
  39:source\asw/swc_control.c **** * task: tsk_control
  40:source\asw/swc_control.c **** */
  41:source\asw/swc_control.c **** void CONTROL_calcControl_run(RTE_event ev){
  28              		.loc 1 41 0
  29              		.cfi_startproc
  30              		@ args = 0, pretend = 0, frame = 16
  31              		@ frame_needed = 0, uses_anonymous_args = 0
  32              	.LVL0:
  33 0000 F0B5     		push	{r4, r5, r6, r7, lr}
  34              		.cfi_def_cfa_offset 20
  35              		.cfi_offset 4, -20
  36              		.cfi_offset 5, -16
  37              		.cfi_offset 6, -12
  38              		.cfi_offset 7, -8
  39              		.cfi_offset 14, -4
  40 0002 85B0     		sub	sp, sp, #20
  41              		.cfi_def_cfa_offset 40
  42              	.LVL1:
  43              	.LBB45:
  44              	.LBB46:
  45              		.file 2 ".\\source\\rte/sc_speed.h"
   1:.\source\rte/sc_speed.h **** 
   2:.\source\rte/sc_speed.h **** 
   3:.\source\rte/sc_speed.h **** /**
   4:.\source\rte/sc_speed.h **** *  file    SC_SPEED_signal.h
   5:.\source\rte/sc_speed.h **** *
   6:.\source\rte/sc_speed.h **** *  brief   signal base class for signal sc_speed
   7:.\source\rte/sc_speed.h **** *
   8:.\source\rte/sc_speed.h **** *  author  Autogenerated, Peter Fromm       <peter.fromm@h-da.de>
   9:.\source\rte/sc_speed.h **** *
  10:.\source\rte/sc_speed.h **** *
  11:.\source\rte/sc_speed.h **** */
  12:.\source\rte/sc_speed.h **** 
  13:.\source\rte/sc_speed.h **** /*
  14:.\source\rte/sc_speed.h **** * description: Any type of speed signal goes here
  15:.\source\rte/sc_speed.h **** * name: sc_speed
  16:.\source\rte/sc_speed.h **** * shortname: speed
  17:.\source\rte/sc_speed.h **** */
  18:.\source\rte/sc_speed.h **** 
  19:.\source\rte/sc_speed.h **** #ifndef SC_SPEED_SIGNAL_H_INCLUDED
  20:.\source\rte/sc_speed.h **** #define SC_SPEED_SIGNAL_H_INCLUDED
  21:.\source\rte/sc_speed.h **** 
  22:.\source\rte/sc_speed.h **** /*================================================[ public includes  ]=============================
  23:.\source\rte/sc_speed.h **** #include "global.h"
  24:.\source\rte/sc_speed.h **** #include "project.h"
  25:.\source\rte/sc_speed.h **** #include "rte.h"
  26:.\source\rte/sc_speed.h **** #include "rte_types.h"
  27:.\source\rte/sc_speed.h **** 
  28:.\source\rte/sc_speed.h **** #include "sc_speed_type.h"
ARM GAS  C:\Users\MATEOC~1.QUE\AppData\Local\Temp\cclqpYd3.s 			page 3


  29:.\source\rte/sc_speed.h **** 
  30:.\source\rte/sc_speed.h **** 
  31:.\source\rte/sc_speed.h **** /**************************************************************************************************
  32:.\source\rte/sc_speed.h **** /* The driver API block																						*/
  33:.\source\rte/sc_speed.h **** /**************************************************************************************************
  34:.\source\rte/sc_speed.h ****                                                                                                    
  35:.\source\rte/sc_speed.h **** /**
  36:.\source\rte/sc_speed.h ****  *  Definition of function types for driver interfaces.
  37:.\source\rte/sc_speed.h ****  *  I-Port
  38:.\source\rte/sc_speed.h ****  */
  39:.\source\rte/sc_speed.h **** typedef RC_t (*SC_SPEED_driverIn_t)(SC_SPEED_data_t * const);
  40:.\source\rte/sc_speed.h **** 
  41:.\source\rte/sc_speed.h **** /**
  42:.\source\rte/sc_speed.h ****  *  Definition of function types for driver interfaces.
  43:.\source\rte/sc_speed.h ****  *  O-Port
  44:.\source\rte/sc_speed.h ****  */
  45:.\source\rte/sc_speed.h **** typedef RC_t (*SC_SPEED_driverOut_t)( const SC_SPEED_data_t * const);
  46:.\source\rte/sc_speed.h **** 
  47:.\source\rte/sc_speed.h **** 
  48:.\source\rte/sc_speed.h **** /**************************************************************************************************
  49:.\source\rte/sc_speed.h **** /* The signal configuration API block																				*/
  50:.\source\rte/sc_speed.h **** /**************************************************************************************************
  51:.\source\rte/sc_speed.h **** 
  52:.\source\rte/sc_speed.h **** /**
  53:.\source\rte/sc_speed.h ****  * Instances of the struct SC_SPEED_cfg_t represent the signal object configuration.
  54:.\source\rte/sc_speed.h ****  */
  55:.\source\rte/sc_speed.h **** struct SC_SPEED_cfg_s
  56:.\source\rte/sc_speed.h **** {
  57:.\source\rte/sc_speed.h ****     /**
  58:.\source\rte/sc_speed.h ****      * Function pointer to the input driver
  59:.\source\rte/sc_speed.h ****      */
  60:.\source\rte/sc_speed.h ****     SC_SPEED_driverIn_t const inDriver;
  61:.\source\rte/sc_speed.h **** 
  62:.\source\rte/sc_speed.h ****     /**
  63:.\source\rte/sc_speed.h ****      * Function pointer to the output driver table
  64:.\source\rte/sc_speed.h ****      */
  65:.\source\rte/sc_speed.h ****    SC_SPEED_driverOut_t const outDriver;
  66:.\source\rte/sc_speed.h ****    
  67:.\source\rte/sc_speed.h ****     /**
  68:.\source\rte/sc_speed.h ****      * Event onUpdate
  69:.\source\rte/sc_speed.h ****      */
  70:.\source\rte/sc_speed.h ****     EventMaskType const evOnUpdate;
  71:.\source\rte/sc_speed.h ****     
  72:.\source\rte/sc_speed.h ****     
  73:.\source\rte/sc_speed.h ****     /**
  74:.\source\rte/sc_speed.h ****      * Event onError
  75:.\source\rte/sc_speed.h ****      */
  76:.\source\rte/sc_speed.h ****     EventMaskType const evOnError;
  77:.\source\rte/sc_speed.h ****     
  78:.\source\rte/sc_speed.h ****     /**
  79:.\source\rte/sc_speed.h ****      * Task Count onUpdate
  80:.\source\rte/sc_speed.h ****      */
  81:.\source\rte/sc_speed.h ****     size_t const onUpdateTaskCount;
  82:.\source\rte/sc_speed.h **** 
  83:.\source\rte/sc_speed.h ****     /**
  84:.\source\rte/sc_speed.h ****      * Task List onUpdate
  85:.\source\rte/sc_speed.h ****      */
ARM GAS  C:\Users\MATEOC~1.QUE\AppData\Local\Temp\cclqpYd3.s 			page 4


  86:.\source\rte/sc_speed.h ****     TaskTypeArray* const onUpdateTasks;
  87:.\source\rte/sc_speed.h ****     
  88:.\source\rte/sc_speed.h ****     /**
  89:.\source\rte/sc_speed.h ****      * Task Count onError
  90:.\source\rte/sc_speed.h ****      */
  91:.\source\rte/sc_speed.h ****     size_t const onErrorTaskCount;
  92:.\source\rte/sc_speed.h **** 
  93:.\source\rte/sc_speed.h ****     /**
  94:.\source\rte/sc_speed.h ****      * Task List onError
  95:.\source\rte/sc_speed.h ****      */
  96:.\source\rte/sc_speed.h ****     TaskTypeArray* const onErrorTasks;
  97:.\source\rte/sc_speed.h **** 	
  98:.\source\rte/sc_speed.h **** 	
  99:.\source\rte/sc_speed.h **** 	/**
 100:.\source\rte/sc_speed.h **** 	 * Ressourse is active? We need an additional boolean as a ressource value 0 is valid.
 101:.\source\rte/sc_speed.h **** 	 */
 102:.\source\rte/sc_speed.h **** 	 boolean_t const resourceActive;
 103:.\source\rte/sc_speed.h **** 	 
 104:.\source\rte/sc_speed.h **** 	/**
 105:.\source\rte/sc_speed.h **** 	 * Ressourse 
 106:.\source\rte/sc_speed.h **** 	 */
 107:.\source\rte/sc_speed.h **** 	 ResourceType const resource;
 108:.\source\rte/sc_speed.h **** 
 109:.\source\rte/sc_speed.h **** };                                                                                                 
 110:.\source\rte/sc_speed.h **** typedef const struct SC_SPEED_cfg_s SC_SPEED_cfg_t;
 111:.\source\rte/sc_speed.h ****                               
 112:.\source\rte/sc_speed.h **** /**************************************************************************************************
 113:.\source\rte/sc_speed.h **** /* The data interface block																							*/
 114:.\source\rte/sc_speed.h **** /**************************************************************************************************
 115:.\source\rte/sc_speed.h **** 
 116:.\source\rte/sc_speed.h ****                                                                                                    
 117:.\source\rte/sc_speed.h **** 							  
 118:.\source\rte/sc_speed.h **** /**
 119:.\source\rte/sc_speed.h ****  * Instances of the struct SC_SPEED_t represent the signal objects.
 120:.\source\rte/sc_speed.h ****  * A signal object contains the current application value 'value' as well as relevant meta data.
 121:.\source\rte/sc_speed.h ****  */
 122:.\source\rte/sc_speed.h **** struct SC_SPEED_s
 123:.\source\rte/sc_speed.h **** {                                                                                                  
 124:.\source\rte/sc_speed.h **** 
 125:.\source\rte/sc_speed.h **** 	/**
 126:.\source\rte/sc_speed.h **** 	 * Data buffer for the application value
 127:.\source\rte/sc_speed.h **** 	 */
 128:.\source\rte/sc_speed.h ****     SC_SPEED_data_t value;
 129:.\source\rte/sc_speed.h **** 
 130:.\source\rte/sc_speed.h ****     /**
 131:.\source\rte/sc_speed.h ****      * Current signal status
 132:.\source\rte/sc_speed.h ****      */
 133:.\source\rte/sc_speed.h ****     RTE_signalStatus_t status;
 134:.\source\rte/sc_speed.h **** 
 135:.\source\rte/sc_speed.h ****     /**
 136:.\source\rte/sc_speed.h ****      * Current age of the signal (in calling cycles)
 137:.\source\rte/sc_speed.h ****      */
 138:.\source\rte/sc_speed.h ****     uint32_t age;
 139:.\source\rte/sc_speed.h **** 
 140:.\source\rte/sc_speed.h ****     /**
 141:.\source\rte/sc_speed.h ****      * Pointer to the signal configuration
 142:.\source\rte/sc_speed.h ****      */
ARM GAS  C:\Users\MATEOC~1.QUE\AppData\Local\Temp\cclqpYd3.s 			page 5


 143:.\source\rte/sc_speed.h **** 	const SC_SPEED_cfg_t * const    pSigCfg;
 144:.\source\rte/sc_speed.h **** 
 145:.\source\rte/sc_speed.h **** };                                                                                                 
 146:.\source\rte/sc_speed.h **** typedef struct SC_SPEED_s SC_SPEED_t;
 147:.\source\rte/sc_speed.h **** 
 148:.\source\rte/sc_speed.h **** /**************************************************************************************************
 149:.\source\rte/sc_speed.h **** /* Signal initialisation   																							*/
 150:.\source\rte/sc_speed.h **** /**************************************************************************************************
 151:.\source\rte/sc_speed.h **** 
 152:.\source\rte/sc_speed.h **** /**
 153:.\source\rte/sc_speed.h ****  * Initializes a signal instance with a passed init value.
 154:.\source\rte/sc_speed.h ****  * Depending on the configured conversion or scaling function the raw_value will be calculated.
 155:.\source\rte/sc_speed.h ****  * Signal status will change from RTE_SIGNALSTATUS_STARTUP to RTE_SIGNALSTATUS_INITIALIZED.
 156:.\source\rte/sc_speed.h ****  *
 157:.\source\rte/sc_speed.h ****  * @param  SC_SPEED_t * const signal: Pointer to the signal object which will be initialised
 158:.\source\rte/sc_speed.h ****  * @param const sc_speed_data_t * const value: Pointer to initial value of the application data
 159:.\source\rte/sc_speed.h ****  * @return RC_t: standard return code, currently only RC_SUCCESS
 160:.\source\rte/sc_speed.h ****  *
 161:.\source\rte/sc_speed.h ****  **/
 162:.\source\rte/sc_speed.h **** inline RC_t RTE_SC_SPEED_init( SC_SPEED_t * const signal, const SC_SPEED_data_t * const value )
 163:.\source\rte/sc_speed.h **** {                                                                                                  
 164:.\source\rte/sc_speed.h **** 
 165:.\source\rte/sc_speed.h ****    RC_t ret = RC_SUCCESS;
 166:.\source\rte/sc_speed.h **** 
 167:.\source\rte/sc_speed.h ****    //Set value and raw value
 168:.\source\rte/sc_speed.h ****    signal->value  = *value;
 169:.\source\rte/sc_speed.h ****    signal->age    = 0;
 170:.\source\rte/sc_speed.h ****    signal->status = RTE_SIGNALSTATUS_INITIALIZED;
 171:.\source\rte/sc_speed.h **** 
 172:.\source\rte/sc_speed.h ****    return ret;
 173:.\source\rte/sc_speed.h **** }
 174:.\source\rte/sc_speed.h **** 
 175:.\source\rte/sc_speed.h **** /**************************************************************************************************
 176:.\source\rte/sc_speed.h **** /* Status and timeout control																						*/
 177:.\source\rte/sc_speed.h **** /**************************************************************************************************
 178:.\source\rte/sc_speed.h **** 
 179:.\source\rte/sc_speed.h **** /**
 180:.\source\rte/sc_speed.h ****  *  Returns the current signal status of the passed signal instance.
 181:.\source\rte/sc_speed.h ****  *
 182:.\source\rte/sc_speed.h ****  * @param  SC_SPEED_t * const signal: Pointer to the signal object
 183:.\source\rte/sc_speed.h ****  * @return  sig_status_t: The current signal status
 184:.\source\rte/sc_speed.h ****  *
 185:.\source\rte/sc_speed.h ****  **/
 186:.\source\rte/sc_speed.h **** inline RTE_signalStatus_t RTE_SC_SPEED_getStatus( const SC_SPEED_t * const signal )
 187:.\source\rte/sc_speed.h **** {
 188:.\source\rte/sc_speed.h ****    return signal->status;
 189:.\source\rte/sc_speed.h **** }
 190:.\source\rte/sc_speed.h **** 
 191:.\source\rte/sc_speed.h **** 
 192:.\source\rte/sc_speed.h **** /**
 193:.\source\rte/sc_speed.h ****  *  Sets a new signal status of the passed signal instance by passing the new status.
 194:.\source\rte/sc_speed.h ****  *
 195:.\source\rte/sc_speed.h ****  * @param  SC_SPEED_t * const signal: Pointer to the signal object
 196:.\source\rte/sc_speed.h ****  * @param  const sig_status_t status: New signal status
 197:.\source\rte/sc_speed.h ****  * @return RC_t: standard return code, currently only RC_SUCCESS
 198:.\source\rte/sc_speed.h ****  *
 199:.\source\rte/sc_speed.h ****  */
ARM GAS  C:\Users\MATEOC~1.QUE\AppData\Local\Temp\cclqpYd3.s 			page 6


 200:.\source\rte/sc_speed.h **** inline RC_t RTE_SC_SPEED_setStatus( SC_SPEED_t * const signal, const RTE_signalStatus_t status )
 201:.\source\rte/sc_speed.h **** {
 202:.\source\rte/sc_speed.h ****    signal->status = status;
 203:.\source\rte/sc_speed.h ****    size_t taskNum=0;
 204:.\source\rte/sc_speed.h ****    
 205:.\source\rte/sc_speed.h ****    //Fire error events in case of invalid state
 206:.\source\rte/sc_speed.h ****    if (signal->status == RTE_SIGNALSTATUS_INVALID)
 207:.\source\rte/sc_speed.h ****    {
 208:.\source\rte/sc_speed.h **** 	    //Pointer to the Taskarray, containing the tasks receiving the onUpdate events
 209:.\source\rte/sc_speed.h **** 		TaskTypeArray* pTaskArray = signal->pSigCfg->onErrorTasks;
 210:.\source\rte/sc_speed.h **** 
 211:.\source\rte/sc_speed.h **** 		if (NULL!=signal->pSigCfg->evOnError && NULL != pTaskArray){
 212:.\source\rte/sc_speed.h **** 			for( taskNum=0 ; taskNum < signal->pSigCfg->onErrorTaskCount ;taskNum++){
 213:.\source\rte/sc_speed.h **** 				TaskType task = (*pTaskArray)[taskNum];
 214:.\source\rte/sc_speed.h **** 				SetEvent( task, signal->pSigCfg->evOnError);
 215:.\source\rte/sc_speed.h **** 			}
 216:.\source\rte/sc_speed.h **** 		}
 217:.\source\rte/sc_speed.h ****    }
 218:.\source\rte/sc_speed.h ****    
 219:.\source\rte/sc_speed.h ****    return RC_SUCCESS;
 220:.\source\rte/sc_speed.h **** }
 221:.\source\rte/sc_speed.h **** 
 222:.\source\rte/sc_speed.h **** 
 223:.\source\rte/sc_speed.h **** /**
 224:.\source\rte/sc_speed.h ****  * Returns the count of refreshing trials (refresh, set or set_raw) that failed.
 225:.\source\rte/sc_speed.h ****  * Prerquisite: The signal is refreshed cyclically
 226:.\source\rte/sc_speed.h ****  *
 227:.\source\rte/sc_speed.h ****  * @param  SC_SPEED_t * const signal: Pointer to the signal object
 228:.\source\rte/sc_speed.h ****  * @return uint32_t: Number of cycles since the signal has been updated for the last time
 229:.\source\rte/sc_speed.h ****  */
 230:.\source\rte/sc_speed.h **** inline uint32_t RTE_SC_SPEED_getAge( const SC_SPEED_t * const signal )
 231:.\source\rte/sc_speed.h **** {
 232:.\source\rte/sc_speed.h ****    return signal->age;
  46              		.loc 2 232 0
  47 0004 574B     		ldr	r3, .L31
  48 0006 9E68     		ldr	r6, [r3, #8]
  49              	.LVL2:
  50              	.LBE46:
  51              	.LBE45:
  52              	.LBB47:
  53              	.LBB48:
  54              		.file 3 ".\\source\\rte/sc_joystick.h"
   1:.\source\rte/sc_joystick.h **** 
   2:.\source\rte/sc_joystick.h **** 
   3:.\source\rte/sc_joystick.h **** /**
   4:.\source\rte/sc_joystick.h **** *  file    SC_JOYSTICK_signal.h
   5:.\source\rte/sc_joystick.h **** *
   6:.\source\rte/sc_joystick.h **** *  brief   signal base class for signal sc_joystick
   7:.\source\rte/sc_joystick.h **** *
   8:.\source\rte/sc_joystick.h **** *  author  Autogenerated, Peter Fromm       <peter.fromm@h-da.de>
   9:.\source\rte/sc_joystick.h **** *
  10:.\source\rte/sc_joystick.h **** *
  11:.\source\rte/sc_joystick.h **** */
  12:.\source\rte/sc_joystick.h **** 
  13:.\source\rte/sc_joystick.h **** /*
  14:.\source\rte/sc_joystick.h **** * description: Joystick representation
  15:.\source\rte/sc_joystick.h **** * name: sc_joystick
ARM GAS  C:\Users\MATEOC~1.QUE\AppData\Local\Temp\cclqpYd3.s 			page 7


  16:.\source\rte/sc_joystick.h **** * shortname: joystick
  17:.\source\rte/sc_joystick.h **** */
  18:.\source\rte/sc_joystick.h **** 
  19:.\source\rte/sc_joystick.h **** #ifndef SC_JOYSTICK_SIGNAL_H_INCLUDED
  20:.\source\rte/sc_joystick.h **** #define SC_JOYSTICK_SIGNAL_H_INCLUDED
  21:.\source\rte/sc_joystick.h **** 
  22:.\source\rte/sc_joystick.h **** /*================================================[ public includes  ]=============================
  23:.\source\rte/sc_joystick.h **** #include "global.h"
  24:.\source\rte/sc_joystick.h **** #include "project.h"
  25:.\source\rte/sc_joystick.h **** #include "rte.h"
  26:.\source\rte/sc_joystick.h **** #include "rte_types.h"
  27:.\source\rte/sc_joystick.h **** 
  28:.\source\rte/sc_joystick.h **** #include "sc_joystick_type.h"
  29:.\source\rte/sc_joystick.h **** 
  30:.\source\rte/sc_joystick.h **** 
  31:.\source\rte/sc_joystick.h **** /**************************************************************************************************
  32:.\source\rte/sc_joystick.h **** /* The driver API block																						*/
  33:.\source\rte/sc_joystick.h **** /**************************************************************************************************
  34:.\source\rte/sc_joystick.h ****                                                                                                    
  35:.\source\rte/sc_joystick.h **** /**
  36:.\source\rte/sc_joystick.h ****  *  Definition of function types for driver interfaces.
  37:.\source\rte/sc_joystick.h ****  *  I-Port
  38:.\source\rte/sc_joystick.h ****  */
  39:.\source\rte/sc_joystick.h **** typedef RC_t (*SC_JOYSTICK_driverIn_t)(SC_JOYSTICK_data_t * const);
  40:.\source\rte/sc_joystick.h **** 
  41:.\source\rte/sc_joystick.h **** /**
  42:.\source\rte/sc_joystick.h ****  *  Definition of function types for driver interfaces.
  43:.\source\rte/sc_joystick.h ****  *  O-Port
  44:.\source\rte/sc_joystick.h ****  */
  45:.\source\rte/sc_joystick.h **** typedef RC_t (*SC_JOYSTICK_driverOut_t)( const SC_JOYSTICK_data_t * const);
  46:.\source\rte/sc_joystick.h **** 
  47:.\source\rte/sc_joystick.h **** 
  48:.\source\rte/sc_joystick.h **** /**************************************************************************************************
  49:.\source\rte/sc_joystick.h **** /* The signal configuration API block																				*/
  50:.\source\rte/sc_joystick.h **** /**************************************************************************************************
  51:.\source\rte/sc_joystick.h **** 
  52:.\source\rte/sc_joystick.h **** /**
  53:.\source\rte/sc_joystick.h ****  * Instances of the struct SC_JOYSTICK_cfg_t represent the signal object configuration.
  54:.\source\rte/sc_joystick.h ****  */
  55:.\source\rte/sc_joystick.h **** struct SC_JOYSTICK_cfg_s
  56:.\source\rte/sc_joystick.h **** {
  57:.\source\rte/sc_joystick.h ****     /**
  58:.\source\rte/sc_joystick.h ****      * Function pointer to the input driver
  59:.\source\rte/sc_joystick.h ****      */
  60:.\source\rte/sc_joystick.h ****     SC_JOYSTICK_driverIn_t const inDriver;
  61:.\source\rte/sc_joystick.h **** 
  62:.\source\rte/sc_joystick.h ****     /**
  63:.\source\rte/sc_joystick.h ****      * Function pointer to the output driver table
  64:.\source\rte/sc_joystick.h ****      */
  65:.\source\rte/sc_joystick.h ****    SC_JOYSTICK_driverOut_t const outDriver;
  66:.\source\rte/sc_joystick.h ****    
  67:.\source\rte/sc_joystick.h ****     /**
  68:.\source\rte/sc_joystick.h ****      * Event onUpdate
  69:.\source\rte/sc_joystick.h ****      */
  70:.\source\rte/sc_joystick.h ****     EventMaskType const evOnUpdate;
  71:.\source\rte/sc_joystick.h ****     
  72:.\source\rte/sc_joystick.h ****     
ARM GAS  C:\Users\MATEOC~1.QUE\AppData\Local\Temp\cclqpYd3.s 			page 8


  73:.\source\rte/sc_joystick.h ****     /**
  74:.\source\rte/sc_joystick.h ****      * Event onError
  75:.\source\rte/sc_joystick.h ****      */
  76:.\source\rte/sc_joystick.h ****     EventMaskType const evOnError;
  77:.\source\rte/sc_joystick.h ****     
  78:.\source\rte/sc_joystick.h ****     /**
  79:.\source\rte/sc_joystick.h ****      * Task Count onUpdate
  80:.\source\rte/sc_joystick.h ****      */
  81:.\source\rte/sc_joystick.h ****     size_t const onUpdateTaskCount;
  82:.\source\rte/sc_joystick.h **** 
  83:.\source\rte/sc_joystick.h ****     /**
  84:.\source\rte/sc_joystick.h ****      * Task List onUpdate
  85:.\source\rte/sc_joystick.h ****      */
  86:.\source\rte/sc_joystick.h ****     TaskTypeArray* const onUpdateTasks;
  87:.\source\rte/sc_joystick.h ****     
  88:.\source\rte/sc_joystick.h ****     /**
  89:.\source\rte/sc_joystick.h ****      * Task Count onError
  90:.\source\rte/sc_joystick.h ****      */
  91:.\source\rte/sc_joystick.h ****     size_t const onErrorTaskCount;
  92:.\source\rte/sc_joystick.h **** 
  93:.\source\rte/sc_joystick.h ****     /**
  94:.\source\rte/sc_joystick.h ****      * Task List onError
  95:.\source\rte/sc_joystick.h ****      */
  96:.\source\rte/sc_joystick.h ****     TaskTypeArray* const onErrorTasks;
  97:.\source\rte/sc_joystick.h **** 	
  98:.\source\rte/sc_joystick.h **** 	
  99:.\source\rte/sc_joystick.h **** 	/**
 100:.\source\rte/sc_joystick.h **** 	 * Ressourse is active? We need an additional boolean as a ressource value 0 is valid.
 101:.\source\rte/sc_joystick.h **** 	 */
 102:.\source\rte/sc_joystick.h **** 	 boolean_t const resourceActive;
 103:.\source\rte/sc_joystick.h **** 	 
 104:.\source\rte/sc_joystick.h **** 	/**
 105:.\source\rte/sc_joystick.h **** 	 * Ressourse 
 106:.\source\rte/sc_joystick.h **** 	 */
 107:.\source\rte/sc_joystick.h **** 	 ResourceType const resource;
 108:.\source\rte/sc_joystick.h **** 
 109:.\source\rte/sc_joystick.h **** };                                                                                                 
 110:.\source\rte/sc_joystick.h **** typedef const struct SC_JOYSTICK_cfg_s SC_JOYSTICK_cfg_t;
 111:.\source\rte/sc_joystick.h ****                               
 112:.\source\rte/sc_joystick.h **** /**************************************************************************************************
 113:.\source\rte/sc_joystick.h **** /* The data interface block																							*/
 114:.\source\rte/sc_joystick.h **** /**************************************************************************************************
 115:.\source\rte/sc_joystick.h **** 
 116:.\source\rte/sc_joystick.h ****                                                                                                    
 117:.\source\rte/sc_joystick.h **** 							  
 118:.\source\rte/sc_joystick.h **** /**
 119:.\source\rte/sc_joystick.h ****  * Instances of the struct SC_JOYSTICK_t represent the signal objects.
 120:.\source\rte/sc_joystick.h ****  * A signal object contains the current application value 'value' as well as relevant meta data.
 121:.\source\rte/sc_joystick.h ****  */
 122:.\source\rte/sc_joystick.h **** struct SC_JOYSTICK_s
 123:.\source\rte/sc_joystick.h **** {                                                                                                  
 124:.\source\rte/sc_joystick.h **** 
 125:.\source\rte/sc_joystick.h **** 	/**
 126:.\source\rte/sc_joystick.h **** 	 * Data buffer for the application value
 127:.\source\rte/sc_joystick.h **** 	 */
 128:.\source\rte/sc_joystick.h ****     SC_JOYSTICK_data_t value;
 129:.\source\rte/sc_joystick.h **** 
ARM GAS  C:\Users\MATEOC~1.QUE\AppData\Local\Temp\cclqpYd3.s 			page 9


 130:.\source\rte/sc_joystick.h ****     /**
 131:.\source\rte/sc_joystick.h ****      * Current signal status
 132:.\source\rte/sc_joystick.h ****      */
 133:.\source\rte/sc_joystick.h ****     RTE_signalStatus_t status;
 134:.\source\rte/sc_joystick.h **** 
 135:.\source\rte/sc_joystick.h ****     /**
 136:.\source\rte/sc_joystick.h ****      * Current age of the signal (in calling cycles)
 137:.\source\rte/sc_joystick.h ****      */
 138:.\source\rte/sc_joystick.h ****     uint32_t age;
 139:.\source\rte/sc_joystick.h **** 
 140:.\source\rte/sc_joystick.h ****     /**
 141:.\source\rte/sc_joystick.h ****      * Pointer to the signal configuration
 142:.\source\rte/sc_joystick.h ****      */
 143:.\source\rte/sc_joystick.h **** 	const SC_JOYSTICK_cfg_t * const    pSigCfg;
 144:.\source\rte/sc_joystick.h **** 
 145:.\source\rte/sc_joystick.h **** };                                                                                                 
 146:.\source\rte/sc_joystick.h **** typedef struct SC_JOYSTICK_s SC_JOYSTICK_t;
 147:.\source\rte/sc_joystick.h **** 
 148:.\source\rte/sc_joystick.h **** /**************************************************************************************************
 149:.\source\rte/sc_joystick.h **** /* Signal initialisation   																							*/
 150:.\source\rte/sc_joystick.h **** /**************************************************************************************************
 151:.\source\rte/sc_joystick.h **** 
 152:.\source\rte/sc_joystick.h **** /**
 153:.\source\rte/sc_joystick.h ****  * Initializes a signal instance with a passed init value.
 154:.\source\rte/sc_joystick.h ****  * Depending on the configured conversion or scaling function the raw_value will be calculated.
 155:.\source\rte/sc_joystick.h ****  * Signal status will change from RTE_SIGNALSTATUS_STARTUP to RTE_SIGNALSTATUS_INITIALIZED.
 156:.\source\rte/sc_joystick.h ****  *
 157:.\source\rte/sc_joystick.h ****  * @param  SC_JOYSTICK_t * const signal: Pointer to the signal object which will be initialised
 158:.\source\rte/sc_joystick.h ****  * @param const sc_joystick_data_t * const value: Pointer to initial value of the application data
 159:.\source\rte/sc_joystick.h ****  * @return RC_t: standard return code, currently only RC_SUCCESS
 160:.\source\rte/sc_joystick.h ****  *
 161:.\source\rte/sc_joystick.h ****  **/
 162:.\source\rte/sc_joystick.h **** inline RC_t RTE_SC_JOYSTICK_init( SC_JOYSTICK_t * const signal, const SC_JOYSTICK_data_t * const va
 163:.\source\rte/sc_joystick.h **** {                                                                                                  
 164:.\source\rte/sc_joystick.h **** 
 165:.\source\rte/sc_joystick.h ****    RC_t ret = RC_SUCCESS;
 166:.\source\rte/sc_joystick.h **** 
 167:.\source\rte/sc_joystick.h ****    //Set value and raw value
 168:.\source\rte/sc_joystick.h ****    signal->value  = *value;
 169:.\source\rte/sc_joystick.h ****    signal->age    = 0;
 170:.\source\rte/sc_joystick.h ****    signal->status = RTE_SIGNALSTATUS_INITIALIZED;
 171:.\source\rte/sc_joystick.h **** 
 172:.\source\rte/sc_joystick.h ****    return ret;
 173:.\source\rte/sc_joystick.h **** }
 174:.\source\rte/sc_joystick.h **** 
 175:.\source\rte/sc_joystick.h **** /**************************************************************************************************
 176:.\source\rte/sc_joystick.h **** /* Status and timeout control																						*/
 177:.\source\rte/sc_joystick.h **** /**************************************************************************************************
 178:.\source\rte/sc_joystick.h **** 
 179:.\source\rte/sc_joystick.h **** /**
 180:.\source\rte/sc_joystick.h ****  *  Returns the current signal status of the passed signal instance.
 181:.\source\rte/sc_joystick.h ****  *
 182:.\source\rte/sc_joystick.h ****  * @param  SC_JOYSTICK_t * const signal: Pointer to the signal object
 183:.\source\rte/sc_joystick.h ****  * @return  sig_status_t: The current signal status
 184:.\source\rte/sc_joystick.h ****  *
 185:.\source\rte/sc_joystick.h ****  **/
 186:.\source\rte/sc_joystick.h **** inline RTE_signalStatus_t RTE_SC_JOYSTICK_getStatus( const SC_JOYSTICK_t * const signal )
ARM GAS  C:\Users\MATEOC~1.QUE\AppData\Local\Temp\cclqpYd3.s 			page 10


 187:.\source\rte/sc_joystick.h **** {
 188:.\source\rte/sc_joystick.h ****    return signal->status;
 189:.\source\rte/sc_joystick.h **** }
 190:.\source\rte/sc_joystick.h **** 
 191:.\source\rte/sc_joystick.h **** 
 192:.\source\rte/sc_joystick.h **** /**
 193:.\source\rte/sc_joystick.h ****  *  Sets a new signal status of the passed signal instance by passing the new status.
 194:.\source\rte/sc_joystick.h ****  *
 195:.\source\rte/sc_joystick.h ****  * @param  SC_JOYSTICK_t * const signal: Pointer to the signal object
 196:.\source\rte/sc_joystick.h ****  * @param  const sig_status_t status: New signal status
 197:.\source\rte/sc_joystick.h ****  * @return RC_t: standard return code, currently only RC_SUCCESS
 198:.\source\rte/sc_joystick.h ****  *
 199:.\source\rte/sc_joystick.h ****  */
 200:.\source\rte/sc_joystick.h **** inline RC_t RTE_SC_JOYSTICK_setStatus( SC_JOYSTICK_t * const signal, const RTE_signalStatus_t statu
 201:.\source\rte/sc_joystick.h **** {
 202:.\source\rte/sc_joystick.h ****    signal->status = status;
 203:.\source\rte/sc_joystick.h ****    size_t taskNum=0;
 204:.\source\rte/sc_joystick.h ****    
 205:.\source\rte/sc_joystick.h ****    //Fire error events in case of invalid state
 206:.\source\rte/sc_joystick.h ****    if (signal->status == RTE_SIGNALSTATUS_INVALID)
 207:.\source\rte/sc_joystick.h ****    {
 208:.\source\rte/sc_joystick.h **** 	    //Pointer to the Taskarray, containing the tasks receiving the onUpdate events
 209:.\source\rte/sc_joystick.h **** 		TaskTypeArray* pTaskArray = signal->pSigCfg->onErrorTasks;
 210:.\source\rte/sc_joystick.h **** 
 211:.\source\rte/sc_joystick.h **** 		if (NULL!=signal->pSigCfg->evOnError && NULL != pTaskArray){
 212:.\source\rte/sc_joystick.h **** 			for( taskNum=0 ; taskNum < signal->pSigCfg->onErrorTaskCount ;taskNum++){
 213:.\source\rte/sc_joystick.h **** 				TaskType task = (*pTaskArray)[taskNum];
 214:.\source\rte/sc_joystick.h **** 				SetEvent( task, signal->pSigCfg->evOnError);
 215:.\source\rte/sc_joystick.h **** 			}
 216:.\source\rte/sc_joystick.h **** 		}
 217:.\source\rte/sc_joystick.h ****    }
 218:.\source\rte/sc_joystick.h ****    
 219:.\source\rte/sc_joystick.h ****    return RC_SUCCESS;
 220:.\source\rte/sc_joystick.h **** }
 221:.\source\rte/sc_joystick.h **** 
 222:.\source\rte/sc_joystick.h **** 
 223:.\source\rte/sc_joystick.h **** /**
 224:.\source\rte/sc_joystick.h ****  * Returns the count of refreshing trials (refresh, set or set_raw) that failed.
 225:.\source\rte/sc_joystick.h ****  * Prerquisite: The signal is refreshed cyclically
 226:.\source\rte/sc_joystick.h ****  *
 227:.\source\rte/sc_joystick.h ****  * @param  SC_JOYSTICK_t * const signal: Pointer to the signal object
 228:.\source\rte/sc_joystick.h ****  * @return uint32_t: Number of cycles since the signal has been updated for the last time
 229:.\source\rte/sc_joystick.h ****  */
 230:.\source\rte/sc_joystick.h **** inline uint32_t RTE_SC_JOYSTICK_getAge( const SC_JOYSTICK_t * const signal )
 231:.\source\rte/sc_joystick.h **** {
 232:.\source\rte/sc_joystick.h ****    return signal->age;
 233:.\source\rte/sc_joystick.h **** }
 234:.\source\rte/sc_joystick.h **** 
 235:.\source\rte/sc_joystick.h **** /**
 236:.\source\rte/sc_joystick.h ****  * Should be called by application or driver if no new value can be provided.
 237:.\source\rte/sc_joystick.h ****  * @param  SC_JOYSTICK_t * const signal: Pointer to the signal object
 238:.\source\rte/sc_joystick.h ****  * @param uint32_t increment: incrementvalue, typically in [ms]
 239:.\source\rte/sc_joystick.h ****  * @return void
 240:.\source\rte/sc_joystick.h ****  */
 241:.\source\rte/sc_joystick.h **** inline void RTE_SC_JOYSTICK_incAge(  SC_JOYSTICK_t * const signal , uint32_t increment)
 242:.\source\rte/sc_joystick.h **** {
 243:.\source\rte/sc_joystick.h **** 	   //Hack....
ARM GAS  C:\Users\MATEOC~1.QUE\AppData\Local\Temp\cclqpYd3.s 			page 11


 244:.\source\rte/sc_joystick.h **** 	   if ( 0xFFFF0000 > (signal->age + increment) )
 245:.\source\rte/sc_joystick.h **** 	   {
 246:.\source\rte/sc_joystick.h **** 	      signal->age += increment;
 247:.\source\rte/sc_joystick.h **** 	   }
 248:.\source\rte/sc_joystick.h **** }
 249:.\source\rte/sc_joystick.h **** 
 250:.\source\rte/sc_joystick.h **** 
 251:.\source\rte/sc_joystick.h **** /**************************************************************************************************
 252:.\source\rte/sc_joystick.h **** /* Application Data read/write Interface																			*/
 253:.\source\rte/sc_joystick.h **** /**************************************************************************************************
 254:.\source\rte/sc_joystick.h **** 
 255:.\source\rte/sc_joystick.h **** /**
 256:.\source\rte/sc_joystick.h ****  * Returns the current application value of the passed signal instance.
 257:.\source\rte/sc_joystick.h ****  *
 258:.\source\rte/sc_joystick.h ****  * @param  SC_JOYSTICK_t * const signal: Pointer to the signal object
 259:.\source\rte/sc_joystick.h ****  * @return sc_joystick_data_t: current value of the application data buffer
 260:.\source\rte/sc_joystick.h ****  *
 261:.\source\rte/sc_joystick.h ****  **/
 262:.\source\rte/sc_joystick.h **** inline SC_JOYSTICK_data_t RTE_SC_JOYSTICK_get( const SC_JOYSTICK_t * const signal )
 263:.\source\rte/sc_joystick.h **** {               
 264:.\source\rte/sc_joystick.h ****    //Todo: Critical region cannot be protected using return values																						
 265:.\source\rte/sc_joystick.h ****    return signal->value;                                                                           
 266:.\source\rte/sc_joystick.h **** }                                                                                                  
 267:.\source\rte/sc_joystick.h ****                                                                                                    
 268:.\source\rte/sc_joystick.h **** /**
 269:.\source\rte/sc_joystick.h ****  * Returns the current application value of the passed signal instance threadsafe.
 270:.\source\rte/sc_joystick.h ****  *
 271:.\source\rte/sc_joystick.h ****  * @param  SC_JOYSTICK_t * const signal: Pointer to the signal object
 272:.\source\rte/sc_joystick.h ****  * @param  SC_JOYSTICK_data_t* data: Pointer to the return data Pointer to the signal object
 273:.\source\rte/sc_joystick.h ****  * @return RC_SUCCESS
 274:.\source\rte/sc_joystick.h ****  *
 275:.\source\rte/sc_joystick.h ****  **/
 276:.\source\rte/sc_joystick.h **** inline RC_t RTE_SC_JOYSTICK_getThreadSafe( const SC_JOYSTICK_t * const signal, SC_JOYSTICK_data_t *
 277:.\source\rte/sc_joystick.h **** {    
 278:.\source\rte/sc_joystick.h ****    if (TRUE == signal->pSigCfg->resourceActive) GetResource(signal->pSigCfg->resource);
 279:.\source\rte/sc_joystick.h ****    *data = signal->value;
 280:.\source\rte/sc_joystick.h ****    if (TRUE == signal->pSigCfg->resourceActive) ReleaseResource(signal->pSigCfg->resource);        
 281:.\source\rte/sc_joystick.h **** 
 282:.\source\rte/sc_joystick.h ****    return RC_SUCCESS;                                                                   
 283:.\source\rte/sc_joystick.h ****    
 284:.\source\rte/sc_joystick.h **** }                                                                                                  
 285:.\source\rte/sc_joystick.h ****                                                                                                    
 286:.\source\rte/sc_joystick.h **** /**
 287:.\source\rte/sc_joystick.h ****  * Sets a new application value to the passed signal instance by passing the new value.
 288:.\source\rte/sc_joystick.h ****  * The corresponding driver raw value will be calculated immediately by using the default conversio
 289:.\source\rte/sc_joystick.h ****  * signal specific scaling function.
 290:.\source\rte/sc_joystick.h ****  * The signal age will be set to 0 and the new status will be 'RTE_SIGNALSTATUS_VALID'.
 291:.\source\rte/sc_joystick.h ****  *
 292:.\source\rte/sc_joystick.h ****  * @param  SC_JOYSTICK_t * const signal: Pointer to the signal object
 293:.\source\rte/sc_joystick.h ****  * @param  sc_joystick_data_t const value: value for the application data buffer
 294:.\source\rte/sc_joystick.h ****  * @return RC_t: standard return code, currently only RC_SUCCESS
 295:.\source\rte/sc_joystick.h ****  *
 296:.\source\rte/sc_joystick.h ****  **/
 297:.\source\rte/sc_joystick.h **** inline RC_t RTE_SC_JOYSTICK_set(SC_JOYSTICK_t * const signal, const SC_JOYSTICK_data_t value  )
 298:.\source\rte/sc_joystick.h **** {
 299:.\source\rte/sc_joystick.h **** 
 300:.\source\rte/sc_joystick.h ****    RC_t ret = RC_SUCCESS;
ARM GAS  C:\Users\MATEOC~1.QUE\AppData\Local\Temp\cclqpYd3.s 			page 12


 301:.\source\rte/sc_joystick.h ****    size_t taskNum=0;
 302:.\source\rte/sc_joystick.h **** 
 303:.\source\rte/sc_joystick.h **** 
 304:.\source\rte/sc_joystick.h ****    if (TRUE == signal->pSigCfg->resourceActive) GetResource(signal->pSigCfg->resource);
 305:.\source\rte/sc_joystick.h ****    signal->value  = value;
 306:.\source\rte/sc_joystick.h ****    signal->age    = 0;
 307:.\source\rte/sc_joystick.h ****    signal->status = RTE_SIGNALSTATUS_VALID;
 308:.\source\rte/sc_joystick.h ****    if (TRUE == signal->pSigCfg->resourceActive) ReleaseResource(signal->pSigCfg->resource);
 309:.\source\rte/sc_joystick.h **** 
 310:.\source\rte/sc_joystick.h ****    //Pointer to the Taskarray, containing the tasks receiving the onUpdate events
 311:.\source\rte/sc_joystick.h ****    TaskTypeArray* pTaskArray = signal->pSigCfg->onUpdateTasks;
 312:.\source\rte/sc_joystick.h **** 
 313:.\source\rte/sc_joystick.h ****    if (NULL!=signal->pSigCfg->evOnUpdate && NULL != pTaskArray){
 314:.\source\rte/sc_joystick.h ****       for( taskNum=0 ; taskNum < signal->pSigCfg->onUpdateTaskCount ;taskNum++){
 315:.\source\rte/sc_joystick.h **** 		  
 316:.\source\rte/sc_joystick.h ****           TaskType task = (*pTaskArray)[taskNum];
 317:.\source\rte/sc_joystick.h **** 	      SetEvent( task, signal->pSigCfg->evOnUpdate);
 318:.\source\rte/sc_joystick.h ****       }
 319:.\source\rte/sc_joystick.h ****    }
 320:.\source\rte/sc_joystick.h **** 
 321:.\source\rte/sc_joystick.h ****    return ret;
 322:.\source\rte/sc_joystick.h **** }                                                                                                  
 323:.\source\rte/sc_joystick.h ****                                                                                                    
 324:.\source\rte/sc_joystick.h ****                                                                                                    
 325:.\source\rte/sc_joystick.h **** /**************************************************************************************************
 326:.\source\rte/sc_joystick.h **** /* Call functions to the connected drivers																			*/
 327:.\source\rte/sc_joystick.h **** /**************************************************************************************************
 328:.\source\rte/sc_joystick.h **** 
 329:.\source\rte/sc_joystick.h ****                                                                                                    
 330:.\source\rte/sc_joystick.h **** /**
 331:.\source\rte/sc_joystick.h ****  *  Calls the connected driver interface to get a new value.
 332:.\source\rte/sc_joystick.h ****  *
 333:.\source\rte/sc_joystick.h ****  * @param SC_JOYSTICK_t * const signal: Pointer to the signal object
 334:.\source\rte/sc_joystick.h ****  * @return  RC_t: Return value of the driver call
 335:.\source\rte/sc_joystick.h ****  *
 336:.\source\rte/sc_joystick.h ****  */
 337:.\source\rte/sc_joystick.h **** inline RC_t RTE_SC_JOYSTICK_pullPort( SC_JOYSTICK_t * const signal )
 338:.\source\rte/sc_joystick.h **** {                                                                                                  
 339:.\source\rte/sc_joystick.h ****    RC_t ret = RC_SUCCESS;
 340:.\source\rte/sc_joystick.h **** 
 341:.\source\rte/sc_joystick.h ****                                                                                                    
 342:.\source\rte/sc_joystick.h ****    if ( NULL != signal->pSigCfg->inDriver )
  55              		.loc 3 342 0
  56 0008 574B     		ldr	r3, .L31+4
  57 000a 9B68     		ldr	r3, [r3, #8]
  58 000c 1A68     		ldr	r2, [r3]
  59 000e 002A     		cmp	r2, #0
  60 0010 3DD0     		beq	.L24
  61              	.LBB49:
 343:.\source\rte/sc_joystick.h ****    {
 344:.\source\rte/sc_joystick.h **** 	  SC_JOYSTICK_data_t value = signal->value;
  62              		.loc 3 344 0
  63 0012 554A     		ldr	r2, .L31+4
  64 0014 1288     		ldrh	r2, [r2]
  65 0016 04A8     		add	r0, sp, #16
  66              	.LVL3:
  67 0018 20F80C2D 		strh	r2, [r0, #-12]!	@ movhi
ARM GAS  C:\Users\MATEOC~1.QUE\AppData\Local\Temp\cclqpYd3.s 			page 13


 345:.\source\rte/sc_joystick.h ****       ret = signal->pSigCfg->inDriver(&value);
  68              		.loc 3 345 0
  69 001c 1B68     		ldr	r3, [r3]
  70 001e 9847     		blx	r3
  71              	.LVL4:
 346:.\source\rte/sc_joystick.h ****                                                                                                    
 347:.\source\rte/sc_joystick.h ****       if ( ret == RC_SUCCESS )                                                                     
  72              		.loc 3 347 0
  73 0020 0546     		mov	r5, r0
  74 0022 E8B9     		cbnz	r0, .L3
  75              	.LVL5:
  76 0024 BDF80410 		ldrh	r1, [sp, #4]
  77 0028 ADF80010 		strh	r1, [sp]	@ movhi
  78              	.LVL6:
  79              	.LBB50:
  80              	.LBB51:
 304:.\source\rte/sc_joystick.h ****    signal->value  = value;
  81              		.loc 3 304 0
  82 002c 4E4B     		ldr	r3, .L31+4
  83 002e 9A68     		ldr	r2, [r3, #8]
 305:.\source\rte/sc_joystick.h ****    signal->age    = 0;
  84              		.loc 3 305 0
  85 0030 1980     		strh	r1, [r3]	@ movhi
 306:.\source\rte/sc_joystick.h ****    signal->status = RTE_SIGNALSTATUS_VALID;
  86              		.loc 3 306 0
  87 0032 0021     		movs	r1, #0
  88 0034 5960     		str	r1, [r3, #4]
 307:.\source\rte/sc_joystick.h ****    if (TRUE == signal->pSigCfg->resourceActive) ReleaseResource(signal->pSigCfg->resource);
  89              		.loc 3 307 0
  90 0036 0221     		movs	r1, #2
  91 0038 9970     		strb	r1, [r3, #2]
 311:.\source\rte/sc_joystick.h **** 
  92              		.loc 3 311 0
  93 003a 5769     		ldr	r7, [r2, #20]
  94              	.LVL7:
 313:.\source\rte/sc_joystick.h ****       for( taskNum=0 ; taskNum < signal->pSigCfg->onUpdateTaskCount ;taskNum++){
  95              		.loc 3 313 0
  96 003c 9368     		ldr	r3, [r2, #8]
  97 003e 3BB3     		cbz	r3, .L2
  98 0040 3FB9     		cbnz	r7, .L25
  99 0042 25E0     		b	.L2
 100              	.LVL8:
 101              	.L6:
 102              	.LBB52:
 317:.\source\rte/sc_joystick.h ****       }
 103              		.loc 3 317 0
 104 0044 9968     		ldr	r1, [r3, #8]
 105 0046 57F82400 		ldr	r0, [r7, r4, lsl #2]
 106 004a FFF7FEFF 		bl	EE_oo_SetEvent
 107              	.LVL9:
 108              	.LBE52:
 314:.\source\rte/sc_joystick.h **** 		  
 109              		.loc 3 314 0
 110 004e 0134     		adds	r4, r4, #1
 111              	.LVL10:
 112 0050 00E0     		b	.L5
 113              	.LVL11:
ARM GAS  C:\Users\MATEOC~1.QUE\AppData\Local\Temp\cclqpYd3.s 			page 14


 114              	.L25:
 313:.\source\rte/sc_joystick.h ****       for( taskNum=0 ; taskNum < signal->pSigCfg->onUpdateTaskCount ;taskNum++){
 115              		.loc 3 313 0
 116 0052 0024     		movs	r4, #0
 117              	.LVL12:
 118              	.L5:
 314:.\source\rte/sc_joystick.h **** 		  
 119              		.loc 3 314 0
 120 0054 444B     		ldr	r3, .L31+4
 121 0056 9B68     		ldr	r3, [r3, #8]
 122 0058 1A69     		ldr	r2, [r3, #16]
 123 005a 9442     		cmp	r4, r2
 124 005c F2D3     		bcc	.L6
 125 005e 17E0     		b	.L2
 126              	.LVL13:
 127              	.L3:
 128              	.LBE51:
 129              	.LBE50:
 130              	.LBB53:
 131              	.LBB54:
 202:.\source\rte/sc_joystick.h ****    size_t taskNum=0;
 132              		.loc 3 202 0
 133 0060 414B     		ldr	r3, .L31+4
 134 0062 0322     		movs	r2, #3
 135 0064 9A70     		strb	r2, [r3, #2]
 136              	.LVL14:
 137              	.LBB55:
 209:.\source\rte/sc_joystick.h **** 
 138              		.loc 3 209 0
 139 0066 9B68     		ldr	r3, [r3, #8]
 140 0068 DF69     		ldr	r7, [r3, #28]
 141              	.LVL15:
 211:.\source\rte/sc_joystick.h **** 			for( taskNum=0 ; taskNum < signal->pSigCfg->onErrorTaskCount ;taskNum++){
 142              		.loc 3 211 0
 143 006a DB68     		ldr	r3, [r3, #12]
 144 006c 83B1     		cbz	r3, .L2
 145 006e 3FB9     		cbnz	r7, .L26
 146 0070 0EE0     		b	.L2
 147              	.LVL16:
 148              	.L8:
 149              	.LBB56:
 214:.\source\rte/sc_joystick.h **** 			}
 150              		.loc 3 214 0
 151 0072 D968     		ldr	r1, [r3, #12]
 152 0074 57F82400 		ldr	r0, [r7, r4, lsl #2]
 153 0078 FFF7FEFF 		bl	EE_oo_SetEvent
 154              	.LVL17:
 155              	.LBE56:
 212:.\source\rte/sc_joystick.h **** 				TaskType task = (*pTaskArray)[taskNum];
 156              		.loc 3 212 0
 157 007c 0134     		adds	r4, r4, #1
 158              	.LVL18:
 159 007e 00E0     		b	.L7
 160              	.LVL19:
 161              	.L26:
 211:.\source\rte/sc_joystick.h **** 			for( taskNum=0 ; taskNum < signal->pSigCfg->onErrorTaskCount ;taskNum++){
 162              		.loc 3 211 0
ARM GAS  C:\Users\MATEOC~1.QUE\AppData\Local\Temp\cclqpYd3.s 			page 15


 163 0080 0024     		movs	r4, #0
 164              	.LVL20:
 165              	.L7:
 212:.\source\rte/sc_joystick.h **** 				TaskType task = (*pTaskArray)[taskNum];
 166              		.loc 3 212 0
 167 0082 394B     		ldr	r3, .L31+4
 168 0084 9B68     		ldr	r3, [r3, #8]
 169 0086 9A69     		ldr	r2, [r3, #24]
 170 0088 9442     		cmp	r4, r2
 171 008a F2D3     		bcc	.L8
 172 008c 00E0     		b	.L2
 173              	.LVL21:
 174              	.L24:
 175              	.LBE55:
 176              	.LBE54:
 177              	.LBE53:
 178              	.LBE49:
 339:.\source\rte/sc_joystick.h **** 
 179              		.loc 3 339 0
 180 008e 0025     		movs	r5, #0
 181              	.LVL22:
 182              	.L2:
 183              	.LBE48:
 184              	.LBE47:
  42:source\asw/swc_control.c **** 	
  43:source\asw/swc_control.c **** 	/* USER CODE START CONTROL_calcControl_run */
  44:source\asw/swc_control.c ****     SC_JOYSTICK_data_t input = SC_JOYSTICK_INIT_DATA;
  45:source\asw/swc_control.c ****     SC_SPEED_data_t output = SC_SPEED_INIT_DATA;
  46:source\asw/swc_control.c ****     
  47:source\asw/swc_control.c ****     uint32_t age = RTE_SC_SPEED_getAge(&SO_TARGETSPEED_signal);
  48:source\asw/swc_control.c ****     
  49:source\asw/swc_control.c ****     RC_t res = RTE_SC_JOYSTICK_pullPort(&SO_JOYSTICK_signal);
  50:source\asw/swc_control.c ****     if (RC_SUCCESS == res)
 185              		.loc 1 50 0
 186 0090 002D     		cmp	r5, #0
 187 0092 65D1     		bne	.L1
 188              	.LVL23:
 189              	.LBB57:
 190              	.LBB58:
 265:.\source\rte/sc_joystick.h **** }                                                                                                  
 191              		.loc 3 265 0
 192 0094 344B     		ldr	r3, .L31+4
 193 0096 1B88     		ldrh	r3, [r3]
 194 0098 ADF80C30 		strh	r3, [sp, #12]	@ movhi
 195 009c ADF80830 		strh	r3, [sp, #8]	@ movhi
 196              	.LVL24:
 197              	.LBE58:
 198              	.LBE57:
  51:source\asw/swc_control.c ****     {
  52:source\asw/swc_control.c ****         input = RTE_SC_JOYSTICK_get(&SO_JOYSTICK_signal);
  53:source\asw/swc_control.c ****         if(input.y >=0) // only positive values give positive speed
 199              		.loc 1 53 0
 200 00a0 43F30723 		sbfx	r3, r3, #8, #8
 201 00a4 002B     		cmp	r3, #0
 202 00a6 01DB     		blt	.L10
  54:source\asw/swc_control.c ****         {
  55:source\asw/swc_control.c ****             output.rpm = 2 * input.y; // set the output signal to the input signal
ARM GAS  C:\Users\MATEOC~1.QUE\AppData\Local\Temp\cclqpYd3.s 			page 16


 203              		.loc 1 55 0
 204 00a8 5B00     		lsls	r3, r3, #1
 205              	.LVL25:
 206 00aa 00E0     		b	.L11
 207              	.L10:
  56:source\asw/swc_control.c ****         }
  57:source\asw/swc_control.c ****         else
  58:source\asw/swc_control.c ****         {
  59:source\asw/swc_control.c ****             output.rpm = 0;
 208              		.loc 1 59 0
 209 00ac 0023     		movs	r3, #0
 210              	.L11:
  60:source\asw/swc_control.c ****         }
  61:source\asw/swc_control.c ****         if(age < MAX_AGE) //if the age of the data is not too old
 211              		.loc 1 61 0
 212 00ae 022E     		cmp	r6, #2
 213 00b0 56D8     		bhi	.L1
 214              	.LVL26:
 215              	.LBB59:
 216              	.LBB60:
 233:.\source\rte/sc_speed.h **** }
 234:.\source\rte/sc_speed.h **** 
 235:.\source\rte/sc_speed.h **** /**
 236:.\source\rte/sc_speed.h ****  * Should be called by application or driver if no new value can be provided.
 237:.\source\rte/sc_speed.h ****  * @param  SC_SPEED_t * const signal: Pointer to the signal object
 238:.\source\rte/sc_speed.h ****  * @param uint32_t increment: incrementvalue, typically in [ms]
 239:.\source\rte/sc_speed.h ****  * @return void
 240:.\source\rte/sc_speed.h ****  */
 241:.\source\rte/sc_speed.h **** inline void RTE_SC_SPEED_incAge(  SC_SPEED_t * const signal , uint32_t increment)
 242:.\source\rte/sc_speed.h **** {
 243:.\source\rte/sc_speed.h **** 	   //Hack....
 244:.\source\rte/sc_speed.h **** 	   if ( 0xFFFF0000 > (signal->age + increment) )
 245:.\source\rte/sc_speed.h **** 	   {
 246:.\source\rte/sc_speed.h **** 	      signal->age += increment;
 247:.\source\rte/sc_speed.h **** 	   }
 248:.\source\rte/sc_speed.h **** }
 249:.\source\rte/sc_speed.h **** 
 250:.\source\rte/sc_speed.h **** 
 251:.\source\rte/sc_speed.h **** /**************************************************************************************************
 252:.\source\rte/sc_speed.h **** /* Application Data read/write Interface																			*/
 253:.\source\rte/sc_speed.h **** /**************************************************************************************************
 254:.\source\rte/sc_speed.h **** 
 255:.\source\rte/sc_speed.h **** /**
 256:.\source\rte/sc_speed.h ****  * Returns the current application value of the passed signal instance.
 257:.\source\rte/sc_speed.h ****  *
 258:.\source\rte/sc_speed.h ****  * @param  SC_SPEED_t * const signal: Pointer to the signal object
 259:.\source\rte/sc_speed.h ****  * @return sc_speed_data_t: current value of the application data buffer
 260:.\source\rte/sc_speed.h ****  *
 261:.\source\rte/sc_speed.h ****  **/
 262:.\source\rte/sc_speed.h **** inline SC_SPEED_data_t RTE_SC_SPEED_get( const SC_SPEED_t * const signal )
 263:.\source\rte/sc_speed.h **** {               
 264:.\source\rte/sc_speed.h ****    //Todo: Critical region cannot be protected using return values																						
 265:.\source\rte/sc_speed.h ****    return signal->value;                                                                           
 266:.\source\rte/sc_speed.h **** }                                                                                                  
 267:.\source\rte/sc_speed.h ****                                                                                                    
 268:.\source\rte/sc_speed.h **** /**
 269:.\source\rte/sc_speed.h ****  * Returns the current application value of the passed signal instance threadsafe.
ARM GAS  C:\Users\MATEOC~1.QUE\AppData\Local\Temp\cclqpYd3.s 			page 17


 270:.\source\rte/sc_speed.h ****  *
 271:.\source\rte/sc_speed.h ****  * @param  SC_SPEED_t * const signal: Pointer to the signal object
 272:.\source\rte/sc_speed.h ****  * @param  SC_SPEED_data_t* data: Pointer to the return data Pointer to the signal object
 273:.\source\rte/sc_speed.h ****  * @return RC_SUCCESS
 274:.\source\rte/sc_speed.h ****  *
 275:.\source\rte/sc_speed.h ****  **/
 276:.\source\rte/sc_speed.h **** inline RC_t RTE_SC_SPEED_getThreadSafe( const SC_SPEED_t * const signal, SC_SPEED_data_t * const da
 277:.\source\rte/sc_speed.h **** {    
 278:.\source\rte/sc_speed.h ****    if (TRUE == signal->pSigCfg->resourceActive) GetResource(signal->pSigCfg->resource);
 279:.\source\rte/sc_speed.h ****    *data = signal->value;
 280:.\source\rte/sc_speed.h ****    if (TRUE == signal->pSigCfg->resourceActive) ReleaseResource(signal->pSigCfg->resource);        
 281:.\source\rte/sc_speed.h **** 
 282:.\source\rte/sc_speed.h ****    return RC_SUCCESS;                                                                   
 283:.\source\rte/sc_speed.h ****    
 284:.\source\rte/sc_speed.h **** }                                                                                                  
 285:.\source\rte/sc_speed.h ****                                                                                                    
 286:.\source\rte/sc_speed.h **** /**
 287:.\source\rte/sc_speed.h ****  * Sets a new application value to the passed signal instance by passing the new value.
 288:.\source\rte/sc_speed.h ****  * The corresponding driver raw value will be calculated immediately by using the default conversio
 289:.\source\rte/sc_speed.h ****  * signal specific scaling function.
 290:.\source\rte/sc_speed.h ****  * The signal age will be set to 0 and the new status will be 'RTE_SIGNALSTATUS_VALID'.
 291:.\source\rte/sc_speed.h ****  *
 292:.\source\rte/sc_speed.h ****  * @param  SC_SPEED_t * const signal: Pointer to the signal object
 293:.\source\rte/sc_speed.h ****  * @param  sc_speed_data_t const value: value for the application data buffer
 294:.\source\rte/sc_speed.h ****  * @return RC_t: standard return code, currently only RC_SUCCESS
 295:.\source\rte/sc_speed.h ****  *
 296:.\source\rte/sc_speed.h ****  **/
 297:.\source\rte/sc_speed.h **** inline RC_t RTE_SC_SPEED_set(SC_SPEED_t * const signal, const SC_SPEED_data_t value  )
 298:.\source\rte/sc_speed.h **** {
 299:.\source\rte/sc_speed.h **** 
 300:.\source\rte/sc_speed.h ****    RC_t ret = RC_SUCCESS;
 301:.\source\rte/sc_speed.h ****    size_t taskNum=0;
 302:.\source\rte/sc_speed.h **** 
 303:.\source\rte/sc_speed.h **** 
 304:.\source\rte/sc_speed.h ****    if (TRUE == signal->pSigCfg->resourceActive) GetResource(signal->pSigCfg->resource);
 217              		.loc 2 304 0
 218 00b2 2C4A     		ldr	r2, .L31
 219 00b4 D168     		ldr	r1, [r2, #12]
 220              	.LVL27:
 305:.\source\rte/sc_speed.h ****    signal->value  = value;
 221              		.loc 2 305 0
 222 00b6 1360     		str	r3, [r2]
 306:.\source\rte/sc_speed.h ****    signal->age    = 0;
 223              		.loc 2 306 0
 224 00b8 0023     		movs	r3, #0
 225              	.LVL28:
 226 00ba 9360     		str	r3, [r2, #8]
 307:.\source\rte/sc_speed.h ****    signal->status = RTE_SIGNALSTATUS_VALID;
 227              		.loc 2 307 0
 228 00bc 0223     		movs	r3, #2
 229 00be 1371     		strb	r3, [r2, #4]
 308:.\source\rte/sc_speed.h ****    if (TRUE == signal->pSigCfg->resourceActive) ReleaseResource(signal->pSigCfg->resource);
 309:.\source\rte/sc_speed.h **** 
 310:.\source\rte/sc_speed.h ****    //Pointer to the Taskarray, containing the tasks receiving the onUpdate events
 311:.\source\rte/sc_speed.h ****    TaskTypeArray* pTaskArray = signal->pSigCfg->onUpdateTasks;
 230              		.loc 2 311 0
 231 00c0 4D69     		ldr	r5, [r1, #20]
ARM GAS  C:\Users\MATEOC~1.QUE\AppData\Local\Temp\cclqpYd3.s 			page 18


 232              	.LVL29:
 312:.\source\rte/sc_speed.h **** 
 313:.\source\rte/sc_speed.h ****    if (NULL!=signal->pSigCfg->evOnUpdate && NULL != pTaskArray){
 233              		.loc 2 313 0
 234 00c2 8B68     		ldr	r3, [r1, #8]
 235 00c4 73B1     		cbz	r3, .L13
 236 00c6 3DB9     		cbnz	r5, .L27
 237 00c8 0CE0     		b	.L13
 238              	.LVL30:
 239              	.L15:
 240              	.LBB61:
 314:.\source\rte/sc_speed.h ****       for( taskNum=0 ; taskNum < signal->pSigCfg->onUpdateTaskCount ;taskNum++){
 315:.\source\rte/sc_speed.h **** 		  
 316:.\source\rte/sc_speed.h ****           TaskType task = (*pTaskArray)[taskNum];
 317:.\source\rte/sc_speed.h **** 	      SetEvent( task, signal->pSigCfg->evOnUpdate);
 241              		.loc 2 317 0
 242 00ca 9968     		ldr	r1, [r3, #8]
 243 00cc 55F82400 		ldr	r0, [r5, r4, lsl #2]
 244 00d0 FFF7FEFF 		bl	EE_oo_SetEvent
 245              	.LVL31:
 246              	.LBE61:
 314:.\source\rte/sc_speed.h ****       for( taskNum=0 ; taskNum < signal->pSigCfg->onUpdateTaskCount ;taskNum++){
 247              		.loc 2 314 0
 248 00d4 0134     		adds	r4, r4, #1
 249              	.LVL32:
 250 00d6 00E0     		b	.L14
 251              	.LVL33:
 252              	.L27:
 313:.\source\rte/sc_speed.h ****       for( taskNum=0 ; taskNum < signal->pSigCfg->onUpdateTaskCount ;taskNum++){
 253              		.loc 2 313 0
 254 00d8 0024     		movs	r4, #0
 255              	.LVL34:
 256              	.L14:
 314:.\source\rte/sc_speed.h ****       for( taskNum=0 ; taskNum < signal->pSigCfg->onUpdateTaskCount ;taskNum++){
 257              		.loc 2 314 0
 258 00da 224B     		ldr	r3, .L31
 259 00dc DB68     		ldr	r3, [r3, #12]
 260 00de 1A69     		ldr	r2, [r3, #16]
 261 00e0 9442     		cmp	r4, r2
 262 00e2 F2D3     		bcc	.L15
 263              	.LVL35:
 264              	.L13:
 265              	.LBE60:
 266              	.LBE59:
 267              	.LBB62:
 268              	.LBB63:
 318:.\source\rte/sc_speed.h ****       }
 319:.\source\rte/sc_speed.h ****    }
 320:.\source\rte/sc_speed.h **** 
 321:.\source\rte/sc_speed.h ****    return ret;
 322:.\source\rte/sc_speed.h **** }                                                                                                  
 323:.\source\rte/sc_speed.h ****                                                                                                    
 324:.\source\rte/sc_speed.h ****                                                                                                    
 325:.\source\rte/sc_speed.h **** /**************************************************************************************************
 326:.\source\rte/sc_speed.h **** /* Call functions to the connected drivers																			*/
 327:.\source\rte/sc_speed.h **** /**************************************************************************************************
 328:.\source\rte/sc_speed.h **** 
ARM GAS  C:\Users\MATEOC~1.QUE\AppData\Local\Temp\cclqpYd3.s 			page 19


 329:.\source\rte/sc_speed.h ****                                                                                                    
 330:.\source\rte/sc_speed.h **** /**
 331:.\source\rte/sc_speed.h ****  *  Calls the connected driver interface to get a new value.
 332:.\source\rte/sc_speed.h ****  *
 333:.\source\rte/sc_speed.h ****  * @param SC_SPEED_t * const signal: Pointer to the signal object
 334:.\source\rte/sc_speed.h ****  * @return  RC_t: Return value of the driver call
 335:.\source\rte/sc_speed.h ****  *
 336:.\source\rte/sc_speed.h ****  */
 337:.\source\rte/sc_speed.h **** inline RC_t RTE_SC_SPEED_pullPort( SC_SPEED_t * const signal )
 338:.\source\rte/sc_speed.h **** {                                                                                                  
 339:.\source\rte/sc_speed.h ****    RC_t ret = RC_SUCCESS;
 340:.\source\rte/sc_speed.h **** 
 341:.\source\rte/sc_speed.h ****                                                                                                    
 342:.\source\rte/sc_speed.h ****    if ( NULL != signal->pSigCfg->inDriver )
 269              		.loc 2 342 0
 270 00e4 1F4B     		ldr	r3, .L31
 271 00e6 DB68     		ldr	r3, [r3, #12]
 272 00e8 1A68     		ldr	r2, [r3]
 273 00ea 002A     		cmp	r2, #0
 274 00ec 38D0     		beq	.L1
 275              	.LBB64:
 343:.\source\rte/sc_speed.h ****    {
 344:.\source\rte/sc_speed.h **** 	  SC_SPEED_data_t value = signal->value;
 276              		.loc 2 344 0
 277 00ee 1D4A     		ldr	r2, .L31
 278 00f0 1268     		ldr	r2, [r2]
 279 00f2 04A8     		add	r0, sp, #16
 280 00f4 40F80C2D 		str	r2, [r0, #-12]!
 345:.\source\rte/sc_speed.h ****       ret = signal->pSigCfg->inDriver(&value);
 281              		.loc 2 345 0
 282 00f8 1B68     		ldr	r3, [r3]
 283 00fa 9847     		blx	r3
 284              	.LVL36:
 346:.\source\rte/sc_speed.h ****                                                                                                    
 347:.\source\rte/sc_speed.h ****       if ( ret == RC_SUCCESS )                                                                     
 285              		.loc 2 347 0
 286 00fc D0B9     		cbnz	r0, .L17
 287              	.LVL37:
 288              	.LBB65:
 289              	.LBB66:
 304:.\source\rte/sc_speed.h ****    signal->value  = value;
 290              		.loc 2 304 0
 291 00fe 194B     		ldr	r3, .L31
 292 0100 DA68     		ldr	r2, [r3, #12]
 305:.\source\rte/sc_speed.h ****    signal->age    = 0;
 293              		.loc 2 305 0
 294 0102 0199     		ldr	r1, [sp, #4]
 295              	.LVL38:
 296 0104 1960     		str	r1, [r3]
 306:.\source\rte/sc_speed.h ****    signal->status = RTE_SIGNALSTATUS_VALID;
 297              		.loc 2 306 0
 298 0106 0021     		movs	r1, #0
 299              	.LVL39:
 300 0108 9960     		str	r1, [r3, #8]
 307:.\source\rte/sc_speed.h ****    if (TRUE == signal->pSigCfg->resourceActive) ReleaseResource(signal->pSigCfg->resource);
 301              		.loc 2 307 0
 302 010a 0221     		movs	r1, #2
ARM GAS  C:\Users\MATEOC~1.QUE\AppData\Local\Temp\cclqpYd3.s 			page 20


 303 010c 1971     		strb	r1, [r3, #4]
 311:.\source\rte/sc_speed.h **** 
 304              		.loc 2 311 0
 305 010e 5569     		ldr	r5, [r2, #20]
 306              	.LVL40:
 313:.\source\rte/sc_speed.h ****       for( taskNum=0 ; taskNum < signal->pSigCfg->onUpdateTaskCount ;taskNum++){
 307              		.loc 2 313 0
 308 0110 9368     		ldr	r3, [r2, #8]
 309 0112 2BB3     		cbz	r3, .L1
 310 0114 3DB9     		cbnz	r5, .L28
 311 0116 23E0     		b	.L1
 312              	.LVL41:
 313              	.L20:
 314              	.LBB67:
 317:.\source\rte/sc_speed.h ****       }
 315              		.loc 2 317 0
 316 0118 9968     		ldr	r1, [r3, #8]
 317 011a 55F82400 		ldr	r0, [r5, r4, lsl #2]
 318 011e FFF7FEFF 		bl	EE_oo_SetEvent
 319              	.LVL42:
 320              	.LBE67:
 314:.\source\rte/sc_speed.h **** 		  
 321              		.loc 2 314 0
 322 0122 0134     		adds	r4, r4, #1
 323              	.LVL43:
 324 0124 00E0     		b	.L19
 325              	.LVL44:
 326              	.L28:
 313:.\source\rte/sc_speed.h ****       for( taskNum=0 ; taskNum < signal->pSigCfg->onUpdateTaskCount ;taskNum++){
 327              		.loc 2 313 0
 328 0126 0024     		movs	r4, #0
 329              	.LVL45:
 330              	.L19:
 314:.\source\rte/sc_speed.h **** 		  
 331              		.loc 2 314 0
 332 0128 0E4B     		ldr	r3, .L31
 333 012a DB68     		ldr	r3, [r3, #12]
 334 012c 1A69     		ldr	r2, [r3, #16]
 335 012e 9442     		cmp	r4, r2
 336 0130 F2D3     		bcc	.L20
 337 0132 15E0     		b	.L1
 338              	.LVL46:
 339              	.L17:
 340              	.LBE66:
 341              	.LBE65:
 342              	.LBB68:
 343              	.LBB69:
 202:.\source\rte/sc_speed.h ****    size_t taskNum=0;
 344              		.loc 2 202 0
 345 0134 0B4B     		ldr	r3, .L31
 346 0136 0322     		movs	r2, #3
 347 0138 1A71     		strb	r2, [r3, #4]
 348              	.LVL47:
 349              	.LBB70:
 209:.\source\rte/sc_speed.h **** 
 350              		.loc 2 209 0
 351 013a DB68     		ldr	r3, [r3, #12]
ARM GAS  C:\Users\MATEOC~1.QUE\AppData\Local\Temp\cclqpYd3.s 			page 21


 352 013c DD69     		ldr	r5, [r3, #28]
 353              	.LVL48:
 211:.\source\rte/sc_speed.h **** 			for( taskNum=0 ; taskNum < signal->pSigCfg->onErrorTaskCount ;taskNum++){
 354              		.loc 2 211 0
 355 013e DB68     		ldr	r3, [r3, #12]
 356 0140 73B1     		cbz	r3, .L1
 357 0142 3DB9     		cbnz	r5, .L29
 358 0144 0CE0     		b	.L1
 359              	.LVL49:
 360              	.L22:
 361              	.LBB71:
 214:.\source\rte/sc_speed.h **** 			}
 362              		.loc 2 214 0
 363 0146 D968     		ldr	r1, [r3, #12]
 364 0148 55F82400 		ldr	r0, [r5, r4, lsl #2]
 365 014c FFF7FEFF 		bl	EE_oo_SetEvent
 366              	.LVL50:
 367              	.LBE71:
 212:.\source\rte/sc_speed.h **** 				TaskType task = (*pTaskArray)[taskNum];
 368              		.loc 2 212 0
 369 0150 0134     		adds	r4, r4, #1
 370              	.LVL51:
 371 0152 00E0     		b	.L21
 372              	.LVL52:
 373              	.L29:
 211:.\source\rte/sc_speed.h **** 			for( taskNum=0 ; taskNum < signal->pSigCfg->onErrorTaskCount ;taskNum++){
 374              		.loc 2 211 0
 375 0154 0024     		movs	r4, #0
 376              	.LVL53:
 377              	.L21:
 212:.\source\rte/sc_speed.h **** 				TaskType task = (*pTaskArray)[taskNum];
 378              		.loc 2 212 0
 379 0156 034B     		ldr	r3, .L31
 380 0158 DB68     		ldr	r3, [r3, #12]
 381 015a 9A69     		ldr	r2, [r3, #24]
 382 015c 9442     		cmp	r4, r2
 383 015e F2D3     		bcc	.L22
 384              	.LVL54:
 385              	.L1:
 386              	.LBE70:
 387              	.LBE69:
 388              	.LBE68:
 389              	.LBE64:
 390              	.LBE63:
 391              	.LBE62:
  62:source\asw/swc_control.c ****         {
  63:source\asw/swc_control.c ****             RTE_SC_SPEED_set(&SO_TARGETSPEED_signal, output);
  64:source\asw/swc_control.c ****             RTE_SC_SPEED_pullPort(&SO_TARGETSPEED_signal);   
  65:source\asw/swc_control.c ****         }
  66:source\asw/swc_control.c ****     }
  67:source\asw/swc_control.c ****     else
  68:source\asw/swc_control.c ****     {
  69:source\asw/swc_control.c ****         //Some error handling
  70:source\asw/swc_control.c ****         res = RC_ERROR_BUFFER_EMTPY;
  71:source\asw/swc_control.c ****         return;
  72:source\asw/swc_control.c ****     }
  73:source\asw/swc_control.c **** 
ARM GAS  C:\Users\MATEOC~1.QUE\AppData\Local\Temp\cclqpYd3.s 			page 22


  74:source\asw/swc_control.c ****     /* USER CODE END CONTROL_calcControl_run */
  75:source\asw/swc_control.c **** }
 392              		.loc 1 75 0
 393 0160 05B0     		add	sp, sp, #20
 394              		.cfi_def_cfa_offset 20
 395              		@ sp needed
 396 0162 F0BD     		pop	{r4, r5, r6, r7, pc}
 397              	.L32:
 398              		.align	2
 399              	.L31:
 400 0164 00000000 		.word	SO_TARGETSPEED_signal
 401 0168 00000000 		.word	SO_JOYSTICK_signal
 402              		.cfi_endproc
 403              	.LFE130:
 404              		.size	CONTROL_calcControl_run, .-CONTROL_calcControl_run
 405              		.text
 406              	.Letext0:
 407              		.file 4 "c:\\program files (x86)\\cypress\\psoc creator\\4.4\\psoc creator\\import\\gnu\\arm\\5.4.
 408              		.file 5 "c:\\program files (x86)\\cypress\\psoc creator\\4.4\\psoc creator\\import\\gnu\\arm\\5.4.
 409              		.file 6 "c:\\program files (x86)\\cypress\\psoc creator\\4.4\\psoc creator\\import\\gnu\\arm\\5.4.
 410              		.file 7 "Generated_Source\\PSoC5/ErikaOS_common_ee_types.inc"
 411              		.file 8 "Generated_Source\\PSoC5/ErikaOS_cortex_mx_ee_cpu.inc"
 412              		.file 9 "Generated_Source\\PSoC5/ErikaOS_ee_oo_common.inc"
 413              		.file 10 ".\\source\\bsw/global.h"
 414              		.file 11 ".\\source\\rte/rte_types.h"
 415              		.file 12 ".\\source\\rte/rte.h"
 416              		.file 13 ".\\source\\rte/sc_joystick_type.h"
 417              		.file 14 ".\\source\\rte/sc_speed_type.h"
 418              		.file 15 "Generated_Source\\PSoC5/ErikaOS_ee_oo_intfunc.inc"
 419              		.file 16 "Generated_Source\\PSoC5/ErikaOS_cortex_mx_ee_context.inc"
 420              		.file 17 "Generated_Source\\PSoC5/ErikaOS_common_ee_primitives.inc"
 421              		.file 18 "Generated_Source\\PSoC5/core_cm3.h"
 422              		.file 19 ".\\source\\rte/sp_common.h"
 423              		.file 20 "Generated_Source\\PSoC5/ErikaOS_ee_oo_kernel.inc"