ARM GAS  C:\Users\MATEOC~1.QUE\AppData\Local\Temp\ccJYghvP.s 			page 1


   1              		.syntax unified
   2              		.cpu cortex-m3
   3              		.fpu softvfp
   4              		.eabi_attribute 20, 1
   5              		.eabi_attribute 21, 1
   6              		.eabi_attribute 23, 3
   7              		.eabi_attribute 24, 1
   8              		.eabi_attribute 25, 1
   9              		.eabi_attribute 26, 1
  10              		.eabi_attribute 30, 1
  11              		.eabi_attribute 34, 1
  12              		.eabi_attribute 18, 4
  13              		.thumb
  14              		.syntax unified
  15              		.file	"swc_joystick.c"
  16              		.text
  17              	.Ltext0:
  18              		.cfi_sections	.debug_frame
  19              		.section	.text.JOYSTICK_readJoystick_run,"ax",%progbits
  20              		.align	2
  21              		.global	JOYSTICK_readJoystick_run
  22              		.thumb
  23              		.thumb_func
  24              		.type	JOYSTICK_readJoystick_run, %function
  25              	JOYSTICK_readJoystick_run:
  26              	.LFB130:
  27              		.file 1 "source\\asw\\swc_joystick.c"
   1:source\asw/swc_joystick.c **** 
   2:source\asw/swc_joystick.c **** 
   3:source\asw/swc_joystick.c **** /*
   4:source\asw/swc_joystick.c ****  * Filename: swc_joystick.c
   5:source\asw/swc_joystick.c ****  *
   6:source\asw/swc_joystick.c ****  * Author: Autogenerated by H-DA RTE Generator, (c) Prof. Fromm
   7:source\asw/swc_joystick.c ****  */
   8:source\asw/swc_joystick.c **** 
   9:source\asw/swc_joystick.c **** #include "project.h"
  10:source\asw/swc_joystick.c **** #include "global.h"
  11:source\asw/swc_joystick.c **** #include "rte.h"
  12:source\asw/swc_joystick.c **** #include "rte_types.h"
  13:source\asw/swc_joystick.c **** #include "swc_joystick.h"
  14:source\asw/swc_joystick.c **** 
  15:source\asw/swc_joystick.c **** 
  16:source\asw/swc_joystick.c **** 
  17:source\asw/swc_joystick.c **** /* USER CODE START SWC_JOYSTICK_INCLUDE */
  18:source\asw/swc_joystick.c **** #include "joystick.h"
  19:source\asw/swc_joystick.c **** /* USER CODE END SWC_JOYSTICK_INCLUDE */
  20:source\asw/swc_joystick.c **** 
  21:source\asw/swc_joystick.c **** 
  22:source\asw/swc_joystick.c **** #include "sp_common.h"
  23:source\asw/swc_joystick.c **** 
  24:source\asw/swc_joystick.c **** /* USER CODE START SWC_JOYSTICK_USERDEFINITIONS */
  25:source\asw/swc_joystick.c **** 
  26:source\asw/swc_joystick.c **** /* USER CODE END SWC_JOYSTICK_USERDEFINITIONS */
  27:source\asw/swc_joystick.c **** 
  28:source\asw/swc_joystick.c **** 
  29:source\asw/swc_joystick.c **** 
  30:source\asw/swc_joystick.c **** /*
ARM GAS  C:\Users\MATEOC~1.QUE\AppData\Local\Temp\ccJYghvP.s 			page 2


  31:source\asw/swc_joystick.c **** * component: swc_joystick
  32:source\asw/swc_joystick.c **** * cycletime: 10
  33:source\asw/swc_joystick.c **** * description: Runnable for the incoming joystick x and y values
  34:source\asw/swc_joystick.c **** * events: 
  35:source\asw/swc_joystick.c **** * name: JOYSTICK_readJoystick_run
  36:source\asw/swc_joystick.c **** * shortname: readJoystick
  37:source\asw/swc_joystick.c **** * signalIN: 
  38:source\asw/swc_joystick.c **** * signalOUT: so_joystick
  39:source\asw/swc_joystick.c **** * task: tsk_io
  40:source\asw/swc_joystick.c **** */
  41:source\asw/swc_joystick.c **** void JOYSTICK_readJoystick_run(RTE_event ev){
  28              		.loc 1 41 0
  29              		.cfi_startproc
  30              		@ args = 0, pretend = 0, frame = 16
  31              		@ frame_needed = 0, uses_anonymous_args = 0
  32              	.LVL0:
  33 0000 30B5     		push	{r4, r5, lr}
  34              		.cfi_def_cfa_offset 12
  35              		.cfi_offset 4, -12
  36              		.cfi_offset 5, -8
  37              		.cfi_offset 14, -4
  38 0002 85B0     		sub	sp, sp, #20
  39              		.cfi_def_cfa_offset 32
  42:source\asw/swc_joystick.c **** 	
  43:source\asw/swc_joystick.c **** 	/* USER CODE START JOYSTICK_readJoystick_run */
  44:source\asw/swc_joystick.c ****     SC_JOYSTICK_data_t gasPedal = SC_JOYSTICK_INIT_DATA;
  40              		.loc 1 44 0
  41 0004 0024     		movs	r4, #0
  42 0006 8DF80C40 		strb	r4, [sp, #12]
  43 000a 8DF80D40 		strb	r4, [sp, #13]
  45:source\asw/swc_joystick.c ****     
  46:source\asw/swc_joystick.c ****     JOYSTICK_ReadPosition(&gasPedal.x,&gasPedal.y);
  44              		.loc 1 46 0
  45 000e 0DF10D01 		add	r1, sp, #13
  46 0012 03A8     		add	r0, sp, #12
  47              	.LVL1:
  48 0014 FFF7FEFF 		bl	JOYSTICK_ReadPosition
  49              	.LVL2:
  50 0018 BDF80C10 		ldrh	r1, [sp, #12]
  51 001c ADF80810 		strh	r1, [sp, #8]	@ movhi
  52              	.LVL3:
  53              	.LBB23:
  54              	.LBB24:
  55              		.file 2 ".\\source\\rte/sc_joystick.h"
   1:.\source\rte/sc_joystick.h **** 
   2:.\source\rte/sc_joystick.h **** 
   3:.\source\rte/sc_joystick.h **** /**
   4:.\source\rte/sc_joystick.h **** *  file    SC_JOYSTICK_signal.h
   5:.\source\rte/sc_joystick.h **** *
   6:.\source\rte/sc_joystick.h **** *  brief   signal base class for signal sc_joystick
   7:.\source\rte/sc_joystick.h **** *
   8:.\source\rte/sc_joystick.h **** *  author  Autogenerated, Peter Fromm       <peter.fromm@h-da.de>
   9:.\source\rte/sc_joystick.h **** *
  10:.\source\rte/sc_joystick.h **** *
  11:.\source\rte/sc_joystick.h **** */
  12:.\source\rte/sc_joystick.h **** 
  13:.\source\rte/sc_joystick.h **** /*
ARM GAS  C:\Users\MATEOC~1.QUE\AppData\Local\Temp\ccJYghvP.s 			page 3


  14:.\source\rte/sc_joystick.h **** * description: Joystick representation
  15:.\source\rte/sc_joystick.h **** * name: sc_joystick
  16:.\source\rte/sc_joystick.h **** * shortname: joystick
  17:.\source\rte/sc_joystick.h **** */
  18:.\source\rte/sc_joystick.h **** 
  19:.\source\rte/sc_joystick.h **** #ifndef SC_JOYSTICK_SIGNAL_H_INCLUDED
  20:.\source\rte/sc_joystick.h **** #define SC_JOYSTICK_SIGNAL_H_INCLUDED
  21:.\source\rte/sc_joystick.h **** 
  22:.\source\rte/sc_joystick.h **** /*================================================[ public includes  ]=============================
  23:.\source\rte/sc_joystick.h **** #include "global.h"
  24:.\source\rte/sc_joystick.h **** #include "project.h"
  25:.\source\rte/sc_joystick.h **** #include "rte.h"
  26:.\source\rte/sc_joystick.h **** #include "rte_types.h"
  27:.\source\rte/sc_joystick.h **** 
  28:.\source\rte/sc_joystick.h **** #include "sc_joystick_type.h"
  29:.\source\rte/sc_joystick.h **** 
  30:.\source\rte/sc_joystick.h **** 
  31:.\source\rte/sc_joystick.h **** /**************************************************************************************************
  32:.\source\rte/sc_joystick.h **** /* The driver API block																						*/
  33:.\source\rte/sc_joystick.h **** /**************************************************************************************************
  34:.\source\rte/sc_joystick.h ****                                                                                                    
  35:.\source\rte/sc_joystick.h **** /**
  36:.\source\rte/sc_joystick.h ****  *  Definition of function types for driver interfaces.
  37:.\source\rte/sc_joystick.h ****  *  I-Port
  38:.\source\rte/sc_joystick.h ****  */
  39:.\source\rte/sc_joystick.h **** typedef RC_t (*SC_JOYSTICK_driverIn_t)(SC_JOYSTICK_data_t * const);
  40:.\source\rte/sc_joystick.h **** 
  41:.\source\rte/sc_joystick.h **** /**
  42:.\source\rte/sc_joystick.h ****  *  Definition of function types for driver interfaces.
  43:.\source\rte/sc_joystick.h ****  *  O-Port
  44:.\source\rte/sc_joystick.h ****  */
  45:.\source\rte/sc_joystick.h **** typedef RC_t (*SC_JOYSTICK_driverOut_t)( const SC_JOYSTICK_data_t * const);
  46:.\source\rte/sc_joystick.h **** 
  47:.\source\rte/sc_joystick.h **** 
  48:.\source\rte/sc_joystick.h **** /**************************************************************************************************
  49:.\source\rte/sc_joystick.h **** /* The signal configuration API block																				*/
  50:.\source\rte/sc_joystick.h **** /**************************************************************************************************
  51:.\source\rte/sc_joystick.h **** 
  52:.\source\rte/sc_joystick.h **** /**
  53:.\source\rte/sc_joystick.h ****  * Instances of the struct SC_JOYSTICK_cfg_t represent the signal object configuration.
  54:.\source\rte/sc_joystick.h ****  */
  55:.\source\rte/sc_joystick.h **** struct SC_JOYSTICK_cfg_s
  56:.\source\rte/sc_joystick.h **** {
  57:.\source\rte/sc_joystick.h ****     /**
  58:.\source\rte/sc_joystick.h ****      * Function pointer to the input driver
  59:.\source\rte/sc_joystick.h ****      */
  60:.\source\rte/sc_joystick.h ****     SC_JOYSTICK_driverIn_t const inDriver;
  61:.\source\rte/sc_joystick.h **** 
  62:.\source\rte/sc_joystick.h ****     /**
  63:.\source\rte/sc_joystick.h ****      * Function pointer to the output driver table
  64:.\source\rte/sc_joystick.h ****      */
  65:.\source\rte/sc_joystick.h ****    SC_JOYSTICK_driverOut_t const outDriver;
  66:.\source\rte/sc_joystick.h ****    
  67:.\source\rte/sc_joystick.h ****     /**
  68:.\source\rte/sc_joystick.h ****      * Event onUpdate
  69:.\source\rte/sc_joystick.h ****      */
  70:.\source\rte/sc_joystick.h ****     EventMaskType const evOnUpdate;
ARM GAS  C:\Users\MATEOC~1.QUE\AppData\Local\Temp\ccJYghvP.s 			page 4


  71:.\source\rte/sc_joystick.h ****     
  72:.\source\rte/sc_joystick.h ****     
  73:.\source\rte/sc_joystick.h ****     /**
  74:.\source\rte/sc_joystick.h ****      * Event onError
  75:.\source\rte/sc_joystick.h ****      */
  76:.\source\rte/sc_joystick.h ****     EventMaskType const evOnError;
  77:.\source\rte/sc_joystick.h ****     
  78:.\source\rte/sc_joystick.h ****     /**
  79:.\source\rte/sc_joystick.h ****      * Task Count onUpdate
  80:.\source\rte/sc_joystick.h ****      */
  81:.\source\rte/sc_joystick.h ****     size_t const onUpdateTaskCount;
  82:.\source\rte/sc_joystick.h **** 
  83:.\source\rte/sc_joystick.h ****     /**
  84:.\source\rte/sc_joystick.h ****      * Task List onUpdate
  85:.\source\rte/sc_joystick.h ****      */
  86:.\source\rte/sc_joystick.h ****     TaskTypeArray* const onUpdateTasks;
  87:.\source\rte/sc_joystick.h ****     
  88:.\source\rte/sc_joystick.h ****     /**
  89:.\source\rte/sc_joystick.h ****      * Task Count onError
  90:.\source\rte/sc_joystick.h ****      */
  91:.\source\rte/sc_joystick.h ****     size_t const onErrorTaskCount;
  92:.\source\rte/sc_joystick.h **** 
  93:.\source\rte/sc_joystick.h ****     /**
  94:.\source\rte/sc_joystick.h ****      * Task List onError
  95:.\source\rte/sc_joystick.h ****      */
  96:.\source\rte/sc_joystick.h ****     TaskTypeArray* const onErrorTasks;
  97:.\source\rte/sc_joystick.h **** 	
  98:.\source\rte/sc_joystick.h **** 	
  99:.\source\rte/sc_joystick.h **** 	/**
 100:.\source\rte/sc_joystick.h **** 	 * Ressourse is active? We need an additional boolean as a ressource value 0 is valid.
 101:.\source\rte/sc_joystick.h **** 	 */
 102:.\source\rte/sc_joystick.h **** 	 boolean_t const resourceActive;
 103:.\source\rte/sc_joystick.h **** 	 
 104:.\source\rte/sc_joystick.h **** 	/**
 105:.\source\rte/sc_joystick.h **** 	 * Ressourse 
 106:.\source\rte/sc_joystick.h **** 	 */
 107:.\source\rte/sc_joystick.h **** 	 ResourceType const resource;
 108:.\source\rte/sc_joystick.h **** 
 109:.\source\rte/sc_joystick.h **** };                                                                                                 
 110:.\source\rte/sc_joystick.h **** typedef const struct SC_JOYSTICK_cfg_s SC_JOYSTICK_cfg_t;
 111:.\source\rte/sc_joystick.h ****                               
 112:.\source\rte/sc_joystick.h **** /**************************************************************************************************
 113:.\source\rte/sc_joystick.h **** /* The data interface block																							*/
 114:.\source\rte/sc_joystick.h **** /**************************************************************************************************
 115:.\source\rte/sc_joystick.h **** 
 116:.\source\rte/sc_joystick.h ****                                                                                                    
 117:.\source\rte/sc_joystick.h **** 							  
 118:.\source\rte/sc_joystick.h **** /**
 119:.\source\rte/sc_joystick.h ****  * Instances of the struct SC_JOYSTICK_t represent the signal objects.
 120:.\source\rte/sc_joystick.h ****  * A signal object contains the current application value 'value' as well as relevant meta data.
 121:.\source\rte/sc_joystick.h ****  */
 122:.\source\rte/sc_joystick.h **** struct SC_JOYSTICK_s
 123:.\source\rte/sc_joystick.h **** {                                                                                                  
 124:.\source\rte/sc_joystick.h **** 
 125:.\source\rte/sc_joystick.h **** 	/**
 126:.\source\rte/sc_joystick.h **** 	 * Data buffer for the application value
 127:.\source\rte/sc_joystick.h **** 	 */
ARM GAS  C:\Users\MATEOC~1.QUE\AppData\Local\Temp\ccJYghvP.s 			page 5


 128:.\source\rte/sc_joystick.h ****     SC_JOYSTICK_data_t value;
 129:.\source\rte/sc_joystick.h **** 
 130:.\source\rte/sc_joystick.h ****     /**
 131:.\source\rte/sc_joystick.h ****      * Current signal status
 132:.\source\rte/sc_joystick.h ****      */
 133:.\source\rte/sc_joystick.h ****     RTE_signalStatus_t status;
 134:.\source\rte/sc_joystick.h **** 
 135:.\source\rte/sc_joystick.h ****     /**
 136:.\source\rte/sc_joystick.h ****      * Current age of the signal (in calling cycles)
 137:.\source\rte/sc_joystick.h ****      */
 138:.\source\rte/sc_joystick.h ****     uint32_t age;
 139:.\source\rte/sc_joystick.h **** 
 140:.\source\rte/sc_joystick.h ****     /**
 141:.\source\rte/sc_joystick.h ****      * Pointer to the signal configuration
 142:.\source\rte/sc_joystick.h ****      */
 143:.\source\rte/sc_joystick.h **** 	const SC_JOYSTICK_cfg_t * const    pSigCfg;
 144:.\source\rte/sc_joystick.h **** 
 145:.\source\rte/sc_joystick.h **** };                                                                                                 
 146:.\source\rte/sc_joystick.h **** typedef struct SC_JOYSTICK_s SC_JOYSTICK_t;
 147:.\source\rte/sc_joystick.h **** 
 148:.\source\rte/sc_joystick.h **** /**************************************************************************************************
 149:.\source\rte/sc_joystick.h **** /* Signal initialisation   																							*/
 150:.\source\rte/sc_joystick.h **** /**************************************************************************************************
 151:.\source\rte/sc_joystick.h **** 
 152:.\source\rte/sc_joystick.h **** /**
 153:.\source\rte/sc_joystick.h ****  * Initializes a signal instance with a passed init value.
 154:.\source\rte/sc_joystick.h ****  * Depending on the configured conversion or scaling function the raw_value will be calculated.
 155:.\source\rte/sc_joystick.h ****  * Signal status will change from RTE_SIGNALSTATUS_STARTUP to RTE_SIGNALSTATUS_INITIALIZED.
 156:.\source\rte/sc_joystick.h ****  *
 157:.\source\rte/sc_joystick.h ****  * @param  SC_JOYSTICK_t * const signal: Pointer to the signal object which will be initialised
 158:.\source\rte/sc_joystick.h ****  * @param const sc_joystick_data_t * const value: Pointer to initial value of the application data
 159:.\source\rte/sc_joystick.h ****  * @return RC_t: standard return code, currently only RC_SUCCESS
 160:.\source\rte/sc_joystick.h ****  *
 161:.\source\rte/sc_joystick.h ****  **/
 162:.\source\rte/sc_joystick.h **** inline RC_t RTE_SC_JOYSTICK_init( SC_JOYSTICK_t * const signal, const SC_JOYSTICK_data_t * const va
 163:.\source\rte/sc_joystick.h **** {                                                                                                  
 164:.\source\rte/sc_joystick.h **** 
 165:.\source\rte/sc_joystick.h ****    RC_t ret = RC_SUCCESS;
 166:.\source\rte/sc_joystick.h **** 
 167:.\source\rte/sc_joystick.h ****    //Set value and raw value
 168:.\source\rte/sc_joystick.h ****    signal->value  = *value;
 169:.\source\rte/sc_joystick.h ****    signal->age    = 0;
 170:.\source\rte/sc_joystick.h ****    signal->status = RTE_SIGNALSTATUS_INITIALIZED;
 171:.\source\rte/sc_joystick.h **** 
 172:.\source\rte/sc_joystick.h ****    return ret;
 173:.\source\rte/sc_joystick.h **** }
 174:.\source\rte/sc_joystick.h **** 
 175:.\source\rte/sc_joystick.h **** /**************************************************************************************************
 176:.\source\rte/sc_joystick.h **** /* Status and timeout control																						*/
 177:.\source\rte/sc_joystick.h **** /**************************************************************************************************
 178:.\source\rte/sc_joystick.h **** 
 179:.\source\rte/sc_joystick.h **** /**
 180:.\source\rte/sc_joystick.h ****  *  Returns the current signal status of the passed signal instance.
 181:.\source\rte/sc_joystick.h ****  *
 182:.\source\rte/sc_joystick.h ****  * @param  SC_JOYSTICK_t * const signal: Pointer to the signal object
 183:.\source\rte/sc_joystick.h ****  * @return  sig_status_t: The current signal status
 184:.\source\rte/sc_joystick.h ****  *
ARM GAS  C:\Users\MATEOC~1.QUE\AppData\Local\Temp\ccJYghvP.s 			page 6


 185:.\source\rte/sc_joystick.h ****  **/
 186:.\source\rte/sc_joystick.h **** inline RTE_signalStatus_t RTE_SC_JOYSTICK_getStatus( const SC_JOYSTICK_t * const signal )
 187:.\source\rte/sc_joystick.h **** {
 188:.\source\rte/sc_joystick.h ****    return signal->status;
 189:.\source\rte/sc_joystick.h **** }
 190:.\source\rte/sc_joystick.h **** 
 191:.\source\rte/sc_joystick.h **** 
 192:.\source\rte/sc_joystick.h **** /**
 193:.\source\rte/sc_joystick.h ****  *  Sets a new signal status of the passed signal instance by passing the new status.
 194:.\source\rte/sc_joystick.h ****  *
 195:.\source\rte/sc_joystick.h ****  * @param  SC_JOYSTICK_t * const signal: Pointer to the signal object
 196:.\source\rte/sc_joystick.h ****  * @param  const sig_status_t status: New signal status
 197:.\source\rte/sc_joystick.h ****  * @return RC_t: standard return code, currently only RC_SUCCESS
 198:.\source\rte/sc_joystick.h ****  *
 199:.\source\rte/sc_joystick.h ****  */
 200:.\source\rte/sc_joystick.h **** inline RC_t RTE_SC_JOYSTICK_setStatus( SC_JOYSTICK_t * const signal, const RTE_signalStatus_t statu
 201:.\source\rte/sc_joystick.h **** {
 202:.\source\rte/sc_joystick.h ****    signal->status = status;
 203:.\source\rte/sc_joystick.h ****    size_t taskNum=0;
 204:.\source\rte/sc_joystick.h ****    
 205:.\source\rte/sc_joystick.h ****    //Fire error events in case of invalid state
 206:.\source\rte/sc_joystick.h ****    if (signal->status == RTE_SIGNALSTATUS_INVALID)
 207:.\source\rte/sc_joystick.h ****    {
 208:.\source\rte/sc_joystick.h **** 	    //Pointer to the Taskarray, containing the tasks receiving the onUpdate events
 209:.\source\rte/sc_joystick.h **** 		TaskTypeArray* pTaskArray = signal->pSigCfg->onErrorTasks;
 210:.\source\rte/sc_joystick.h **** 
 211:.\source\rte/sc_joystick.h **** 		if (NULL!=signal->pSigCfg->evOnError && NULL != pTaskArray){
 212:.\source\rte/sc_joystick.h **** 			for( taskNum=0 ; taskNum < signal->pSigCfg->onErrorTaskCount ;taskNum++){
 213:.\source\rte/sc_joystick.h **** 				TaskType task = (*pTaskArray)[taskNum];
 214:.\source\rte/sc_joystick.h **** 				SetEvent( task, signal->pSigCfg->evOnError);
 215:.\source\rte/sc_joystick.h **** 			}
 216:.\source\rte/sc_joystick.h **** 		}
 217:.\source\rte/sc_joystick.h ****    }
 218:.\source\rte/sc_joystick.h ****    
 219:.\source\rte/sc_joystick.h ****    return RC_SUCCESS;
 220:.\source\rte/sc_joystick.h **** }
 221:.\source\rte/sc_joystick.h **** 
 222:.\source\rte/sc_joystick.h **** 
 223:.\source\rte/sc_joystick.h **** /**
 224:.\source\rte/sc_joystick.h ****  * Returns the count of refreshing trials (refresh, set or set_raw) that failed.
 225:.\source\rte/sc_joystick.h ****  * Prerquisite: The signal is refreshed cyclically
 226:.\source\rte/sc_joystick.h ****  *
 227:.\source\rte/sc_joystick.h ****  * @param  SC_JOYSTICK_t * const signal: Pointer to the signal object
 228:.\source\rte/sc_joystick.h ****  * @return uint32_t: Number of cycles since the signal has been updated for the last time
 229:.\source\rte/sc_joystick.h ****  */
 230:.\source\rte/sc_joystick.h **** inline uint32_t RTE_SC_JOYSTICK_getAge( const SC_JOYSTICK_t * const signal )
 231:.\source\rte/sc_joystick.h **** {
 232:.\source\rte/sc_joystick.h ****    return signal->age;
 233:.\source\rte/sc_joystick.h **** }
 234:.\source\rte/sc_joystick.h **** 
 235:.\source\rte/sc_joystick.h **** /**
 236:.\source\rte/sc_joystick.h ****  * Should be called by application or driver if no new value can be provided.
 237:.\source\rte/sc_joystick.h ****  * @param  SC_JOYSTICK_t * const signal: Pointer to the signal object
 238:.\source\rte/sc_joystick.h ****  * @param uint32_t increment: incrementvalue, typically in [ms]
 239:.\source\rte/sc_joystick.h ****  * @return void
 240:.\source\rte/sc_joystick.h ****  */
 241:.\source\rte/sc_joystick.h **** inline void RTE_SC_JOYSTICK_incAge(  SC_JOYSTICK_t * const signal , uint32_t increment)
ARM GAS  C:\Users\MATEOC~1.QUE\AppData\Local\Temp\ccJYghvP.s 			page 7


 242:.\source\rte/sc_joystick.h **** {
 243:.\source\rte/sc_joystick.h **** 	   //Hack....
 244:.\source\rte/sc_joystick.h **** 	   if ( 0xFFFF0000 > (signal->age + increment) )
 245:.\source\rte/sc_joystick.h **** 	   {
 246:.\source\rte/sc_joystick.h **** 	      signal->age += increment;
 247:.\source\rte/sc_joystick.h **** 	   }
 248:.\source\rte/sc_joystick.h **** }
 249:.\source\rte/sc_joystick.h **** 
 250:.\source\rte/sc_joystick.h **** 
 251:.\source\rte/sc_joystick.h **** /**************************************************************************************************
 252:.\source\rte/sc_joystick.h **** /* Application Data read/write Interface																			*/
 253:.\source\rte/sc_joystick.h **** /**************************************************************************************************
 254:.\source\rte/sc_joystick.h **** 
 255:.\source\rte/sc_joystick.h **** /**
 256:.\source\rte/sc_joystick.h ****  * Returns the current application value of the passed signal instance.
 257:.\source\rte/sc_joystick.h ****  *
 258:.\source\rte/sc_joystick.h ****  * @param  SC_JOYSTICK_t * const signal: Pointer to the signal object
 259:.\source\rte/sc_joystick.h ****  * @return sc_joystick_data_t: current value of the application data buffer
 260:.\source\rte/sc_joystick.h ****  *
 261:.\source\rte/sc_joystick.h ****  **/
 262:.\source\rte/sc_joystick.h **** inline SC_JOYSTICK_data_t RTE_SC_JOYSTICK_get( const SC_JOYSTICK_t * const signal )
 263:.\source\rte/sc_joystick.h **** {               
 264:.\source\rte/sc_joystick.h ****    //Todo: Critical region cannot be protected using return values																						
 265:.\source\rte/sc_joystick.h ****    return signal->value;                                                                           
 266:.\source\rte/sc_joystick.h **** }                                                                                                  
 267:.\source\rte/sc_joystick.h ****                                                                                                    
 268:.\source\rte/sc_joystick.h **** /**
 269:.\source\rte/sc_joystick.h ****  * Returns the current application value of the passed signal instance threadsafe.
 270:.\source\rte/sc_joystick.h ****  *
 271:.\source\rte/sc_joystick.h ****  * @param  SC_JOYSTICK_t * const signal: Pointer to the signal object
 272:.\source\rte/sc_joystick.h ****  * @param  SC_JOYSTICK_data_t* data: Pointer to the return data Pointer to the signal object
 273:.\source\rte/sc_joystick.h ****  * @return RC_SUCCESS
 274:.\source\rte/sc_joystick.h ****  *
 275:.\source\rte/sc_joystick.h ****  **/
 276:.\source\rte/sc_joystick.h **** inline RC_t RTE_SC_JOYSTICK_getThreadSafe( const SC_JOYSTICK_t * const signal, SC_JOYSTICK_data_t *
 277:.\source\rte/sc_joystick.h **** {    
 278:.\source\rte/sc_joystick.h ****    if (TRUE == signal->pSigCfg->resourceActive) GetResource(signal->pSigCfg->resource);
 279:.\source\rte/sc_joystick.h ****    *data = signal->value;
 280:.\source\rte/sc_joystick.h ****    if (TRUE == signal->pSigCfg->resourceActive) ReleaseResource(signal->pSigCfg->resource);        
 281:.\source\rte/sc_joystick.h **** 
 282:.\source\rte/sc_joystick.h ****    return RC_SUCCESS;                                                                   
 283:.\source\rte/sc_joystick.h ****    
 284:.\source\rte/sc_joystick.h **** }                                                                                                  
 285:.\source\rte/sc_joystick.h ****                                                                                                    
 286:.\source\rte/sc_joystick.h **** /**
 287:.\source\rte/sc_joystick.h ****  * Sets a new application value to the passed signal instance by passing the new value.
 288:.\source\rte/sc_joystick.h ****  * The corresponding driver raw value will be calculated immediately by using the default conversio
 289:.\source\rte/sc_joystick.h ****  * signal specific scaling function.
 290:.\source\rte/sc_joystick.h ****  * The signal age will be set to 0 and the new status will be 'RTE_SIGNALSTATUS_VALID'.
 291:.\source\rte/sc_joystick.h ****  *
 292:.\source\rte/sc_joystick.h ****  * @param  SC_JOYSTICK_t * const signal: Pointer to the signal object
 293:.\source\rte/sc_joystick.h ****  * @param  sc_joystick_data_t const value: value for the application data buffer
 294:.\source\rte/sc_joystick.h ****  * @return RC_t: standard return code, currently only RC_SUCCESS
 295:.\source\rte/sc_joystick.h ****  *
 296:.\source\rte/sc_joystick.h ****  **/
 297:.\source\rte/sc_joystick.h **** inline RC_t RTE_SC_JOYSTICK_set(SC_JOYSTICK_t * const signal, const SC_JOYSTICK_data_t value  )
 298:.\source\rte/sc_joystick.h **** {
ARM GAS  C:\Users\MATEOC~1.QUE\AppData\Local\Temp\ccJYghvP.s 			page 8


 299:.\source\rte/sc_joystick.h **** 
 300:.\source\rte/sc_joystick.h ****    RC_t ret = RC_SUCCESS;
 301:.\source\rte/sc_joystick.h ****    size_t taskNum=0;
 302:.\source\rte/sc_joystick.h **** 
 303:.\source\rte/sc_joystick.h **** 
 304:.\source\rte/sc_joystick.h ****    if (TRUE == signal->pSigCfg->resourceActive) GetResource(signal->pSigCfg->resource);
  56              		.loc 2 304 0
  57 0020 2D4B     		ldr	r3, .L16
  58 0022 9A68     		ldr	r2, [r3, #8]
 305:.\source\rte/sc_joystick.h ****    signal->value  = value;
  59              		.loc 2 305 0
  60 0024 1980     		strh	r1, [r3]	@ movhi
 306:.\source\rte/sc_joystick.h ****    signal->age    = 0;
  61              		.loc 2 306 0
  62 0026 5C60     		str	r4, [r3, #4]
 307:.\source\rte/sc_joystick.h ****    signal->status = RTE_SIGNALSTATUS_VALID;
  63              		.loc 2 307 0
  64 0028 0221     		movs	r1, #2
  65 002a 9970     		strb	r1, [r3, #2]
 308:.\source\rte/sc_joystick.h ****    if (TRUE == signal->pSigCfg->resourceActive) ReleaseResource(signal->pSigCfg->resource);
 309:.\source\rte/sc_joystick.h **** 
 310:.\source\rte/sc_joystick.h ****    //Pointer to the Taskarray, containing the tasks receiving the onUpdate events
 311:.\source\rte/sc_joystick.h ****    TaskTypeArray* pTaskArray = signal->pSigCfg->onUpdateTasks;
  66              		.loc 2 311 0
  67 002c 5569     		ldr	r5, [r2, #20]
  68              	.LVL4:
 312:.\source\rte/sc_joystick.h **** 
 313:.\source\rte/sc_joystick.h ****    if (NULL!=signal->pSigCfg->evOnUpdate && NULL != pTaskArray){
  69              		.loc 2 313 0
  70 002e 9368     		ldr	r3, [r2, #8]
  71 0030 73B1     		cbz	r3, .L2
  72 0032 3DB9     		cbnz	r5, .L12
  73 0034 0CE0     		b	.L2
  74              	.LVL5:
  75              	.L4:
  76              	.LBB25:
 314:.\source\rte/sc_joystick.h ****       for( taskNum=0 ; taskNum < signal->pSigCfg->onUpdateTaskCount ;taskNum++){
 315:.\source\rte/sc_joystick.h **** 		  
 316:.\source\rte/sc_joystick.h ****           TaskType task = (*pTaskArray)[taskNum];
 317:.\source\rte/sc_joystick.h **** 	      SetEvent( task, signal->pSigCfg->evOnUpdate);
  77              		.loc 2 317 0
  78 0036 9968     		ldr	r1, [r3, #8]
  79 0038 55F82400 		ldr	r0, [r5, r4, lsl #2]
  80 003c FFF7FEFF 		bl	EE_oo_SetEvent
  81              	.LVL6:
  82              	.LBE25:
 314:.\source\rte/sc_joystick.h ****       for( taskNum=0 ; taskNum < signal->pSigCfg->onUpdateTaskCount ;taskNum++){
  83              		.loc 2 314 0
  84 0040 0134     		adds	r4, r4, #1
  85              	.LVL7:
  86 0042 00E0     		b	.L3
  87              	.LVL8:
  88              	.L12:
 313:.\source\rte/sc_joystick.h ****       for( taskNum=0 ; taskNum < signal->pSigCfg->onUpdateTaskCount ;taskNum++){
  89              		.loc 2 313 0
  90 0044 0024     		movs	r4, #0
  91              	.LVL9:
ARM GAS  C:\Users\MATEOC~1.QUE\AppData\Local\Temp\ccJYghvP.s 			page 9


  92              	.L3:
 314:.\source\rte/sc_joystick.h ****       for( taskNum=0 ; taskNum < signal->pSigCfg->onUpdateTaskCount ;taskNum++){
  93              		.loc 2 314 0
  94 0046 244B     		ldr	r3, .L16
  95 0048 9B68     		ldr	r3, [r3, #8]
  96 004a 1A69     		ldr	r2, [r3, #16]
  97 004c 9442     		cmp	r4, r2
  98 004e F2D3     		bcc	.L4
  99              	.LVL10:
 100              	.L2:
 101              	.LBE24:
 102              	.LBE23:
 103              	.LBB26:
 104              	.LBB27:
 318:.\source\rte/sc_joystick.h ****       }
 319:.\source\rte/sc_joystick.h ****    }
 320:.\source\rte/sc_joystick.h **** 
 321:.\source\rte/sc_joystick.h ****    return ret;
 322:.\source\rte/sc_joystick.h **** }                                                                                                  
 323:.\source\rte/sc_joystick.h ****                                                                                                    
 324:.\source\rte/sc_joystick.h ****                                                                                                    
 325:.\source\rte/sc_joystick.h **** /**************************************************************************************************
 326:.\source\rte/sc_joystick.h **** /* Call functions to the connected drivers																			*/
 327:.\source\rte/sc_joystick.h **** /**************************************************************************************************
 328:.\source\rte/sc_joystick.h **** 
 329:.\source\rte/sc_joystick.h ****                                                                                                    
 330:.\source\rte/sc_joystick.h **** /**
 331:.\source\rte/sc_joystick.h ****  *  Calls the connected driver interface to get a new value.
 332:.\source\rte/sc_joystick.h ****  *
 333:.\source\rte/sc_joystick.h ****  * @param SC_JOYSTICK_t * const signal: Pointer to the signal object
 334:.\source\rte/sc_joystick.h ****  * @return  RC_t: Return value of the driver call
 335:.\source\rte/sc_joystick.h ****  *
 336:.\source\rte/sc_joystick.h ****  */
 337:.\source\rte/sc_joystick.h **** inline RC_t RTE_SC_JOYSTICK_pullPort( SC_JOYSTICK_t * const signal )
 338:.\source\rte/sc_joystick.h **** {                                                                                                  
 339:.\source\rte/sc_joystick.h ****    RC_t ret = RC_SUCCESS;
 340:.\source\rte/sc_joystick.h **** 
 341:.\source\rte/sc_joystick.h ****                                                                                                    
 342:.\source\rte/sc_joystick.h ****    if ( NULL != signal->pSigCfg->inDriver )
 105              		.loc 2 342 0
 106 0050 214B     		ldr	r3, .L16
 107 0052 9B68     		ldr	r3, [r3, #8]
 108 0054 1A68     		ldr	r2, [r3]
 109 0056 002A     		cmp	r2, #0
 110 0058 3BD0     		beq	.L1
 111              	.LBB28:
 343:.\source\rte/sc_joystick.h ****    {
 344:.\source\rte/sc_joystick.h **** 	  SC_JOYSTICK_data_t value = signal->value;
 112              		.loc 2 344 0
 113 005a 1F4A     		ldr	r2, .L16
 114 005c 1288     		ldrh	r2, [r2]
 115 005e 04A8     		add	r0, sp, #16
 116 0060 20F8102D 		strh	r2, [r0, #-16]!	@ movhi
 345:.\source\rte/sc_joystick.h ****       ret = signal->pSigCfg->inDriver(&value);
 117              		.loc 2 345 0
 118 0064 1B68     		ldr	r3, [r3]
 119 0066 9847     		blx	r3
ARM GAS  C:\Users\MATEOC~1.QUE\AppData\Local\Temp\ccJYghvP.s 			page 10


 120              	.LVL11:
 346:.\source\rte/sc_joystick.h ****                                                                                                    
 347:.\source\rte/sc_joystick.h ****       if ( ret == RC_SUCCESS )                                                                     
 121              		.loc 2 347 0
 122 0068 E8B9     		cbnz	r0, .L6
 123              	.LVL12:
 124 006a BDF80010 		ldrh	r1, [sp]
 125 006e ADF80410 		strh	r1, [sp, #4]	@ movhi
 126              	.LVL13:
 127              	.LBB29:
 128              	.LBB30:
 304:.\source\rte/sc_joystick.h ****    signal->value  = value;
 129              		.loc 2 304 0
 130 0072 194B     		ldr	r3, .L16
 131 0074 9A68     		ldr	r2, [r3, #8]
 305:.\source\rte/sc_joystick.h ****    signal->age    = 0;
 132              		.loc 2 305 0
 133 0076 1980     		strh	r1, [r3]	@ movhi
 306:.\source\rte/sc_joystick.h ****    signal->status = RTE_SIGNALSTATUS_VALID;
 134              		.loc 2 306 0
 135 0078 0021     		movs	r1, #0
 136 007a 5960     		str	r1, [r3, #4]
 307:.\source\rte/sc_joystick.h ****    if (TRUE == signal->pSigCfg->resourceActive) ReleaseResource(signal->pSigCfg->resource);
 137              		.loc 2 307 0
 138 007c 0221     		movs	r1, #2
 139 007e 9970     		strb	r1, [r3, #2]
 311:.\source\rte/sc_joystick.h **** 
 140              		.loc 2 311 0
 141 0080 5569     		ldr	r5, [r2, #20]
 142              	.LVL14:
 313:.\source\rte/sc_joystick.h ****       for( taskNum=0 ; taskNum < signal->pSigCfg->onUpdateTaskCount ;taskNum++){
 143              		.loc 2 313 0
 144 0082 9368     		ldr	r3, [r2, #8]
 145 0084 2BB3     		cbz	r3, .L1
 146 0086 3DB9     		cbnz	r5, .L13
 147 0088 23E0     		b	.L1
 148              	.LVL15:
 149              	.L9:
 150              	.LBB31:
 317:.\source\rte/sc_joystick.h ****       }
 151              		.loc 2 317 0
 152 008a 9968     		ldr	r1, [r3, #8]
 153 008c 55F82400 		ldr	r0, [r5, r4, lsl #2]
 154 0090 FFF7FEFF 		bl	EE_oo_SetEvent
 155              	.LVL16:
 156              	.LBE31:
 314:.\source\rte/sc_joystick.h **** 		  
 157              		.loc 2 314 0
 158 0094 0134     		adds	r4, r4, #1
 159              	.LVL17:
 160 0096 00E0     		b	.L8
 161              	.LVL18:
 162              	.L13:
 313:.\source\rte/sc_joystick.h ****       for( taskNum=0 ; taskNum < signal->pSigCfg->onUpdateTaskCount ;taskNum++){
 163              		.loc 2 313 0
 164 0098 0024     		movs	r4, #0
 165              	.LVL19:
ARM GAS  C:\Users\MATEOC~1.QUE\AppData\Local\Temp\ccJYghvP.s 			page 11


 166              	.L8:
 314:.\source\rte/sc_joystick.h **** 		  
 167              		.loc 2 314 0
 168 009a 0F4B     		ldr	r3, .L16
 169 009c 9B68     		ldr	r3, [r3, #8]
 170 009e 1A69     		ldr	r2, [r3, #16]
 171 00a0 9442     		cmp	r4, r2
 172 00a2 F2D3     		bcc	.L9
 173 00a4 15E0     		b	.L1
 174              	.LVL20:
 175              	.L6:
 176              	.LBE30:
 177              	.LBE29:
 178              	.LBB32:
 179              	.LBB33:
 202:.\source\rte/sc_joystick.h ****    size_t taskNum=0;
 180              		.loc 2 202 0
 181 00a6 0C4B     		ldr	r3, .L16
 182 00a8 0322     		movs	r2, #3
 183 00aa 9A70     		strb	r2, [r3, #2]
 184              	.LVL21:
 185              	.LBB34:
 209:.\source\rte/sc_joystick.h **** 
 186              		.loc 2 209 0
 187 00ac 9B68     		ldr	r3, [r3, #8]
 188 00ae DD69     		ldr	r5, [r3, #28]
 189              	.LVL22:
 211:.\source\rte/sc_joystick.h **** 			for( taskNum=0 ; taskNum < signal->pSigCfg->onErrorTaskCount ;taskNum++){
 190              		.loc 2 211 0
 191 00b0 DB68     		ldr	r3, [r3, #12]
 192 00b2 73B1     		cbz	r3, .L1
 193 00b4 3DB9     		cbnz	r5, .L14
 194 00b6 0CE0     		b	.L1
 195              	.LVL23:
 196              	.L11:
 197              	.LBB35:
 214:.\source\rte/sc_joystick.h **** 			}
 198              		.loc 2 214 0
 199 00b8 D968     		ldr	r1, [r3, #12]
 200 00ba 55F82400 		ldr	r0, [r5, r4, lsl #2]
 201 00be FFF7FEFF 		bl	EE_oo_SetEvent
 202              	.LVL24:
 203              	.LBE35:
 212:.\source\rte/sc_joystick.h **** 				TaskType task = (*pTaskArray)[taskNum];
 204              		.loc 2 212 0
 205 00c2 0134     		adds	r4, r4, #1
 206              	.LVL25:
 207 00c4 00E0     		b	.L10
 208              	.LVL26:
 209              	.L14:
 211:.\source\rte/sc_joystick.h **** 			for( taskNum=0 ; taskNum < signal->pSigCfg->onErrorTaskCount ;taskNum++){
 210              		.loc 2 211 0
 211 00c6 0024     		movs	r4, #0
 212              	.LVL27:
 213              	.L10:
 212:.\source\rte/sc_joystick.h **** 				TaskType task = (*pTaskArray)[taskNum];
 214              		.loc 2 212 0
ARM GAS  C:\Users\MATEOC~1.QUE\AppData\Local\Temp\ccJYghvP.s 			page 12


 215 00c8 034B     		ldr	r3, .L16
 216 00ca 9B68     		ldr	r3, [r3, #8]
 217 00cc 9A69     		ldr	r2, [r3, #24]
 218 00ce 9442     		cmp	r4, r2
 219 00d0 F2D3     		bcc	.L11
 220              	.LVL28:
 221              	.L1:
 222              	.LBE34:
 223              	.LBE33:
 224              	.LBE32:
 225              	.LBE28:
 226              	.LBE27:
 227              	.LBE26:
  47:source\asw/swc_joystick.c ****     RTE_SC_JOYSTICK_set(&SO_JOYSTICK_signal, gasPedal);
  48:source\asw/swc_joystick.c ****     RTE_SC_JOYSTICK_pullPort(&SO_JOYSTICK_signal);
  49:source\asw/swc_joystick.c ****     /* USER CODE END JOYSTICK_readJoystick_run */
  50:source\asw/swc_joystick.c **** }
 228              		.loc 1 50 0
 229 00d2 05B0     		add	sp, sp, #20
 230              		.cfi_def_cfa_offset 12
 231              		@ sp needed
 232 00d4 30BD     		pop	{r4, r5, pc}
 233              	.L17:
 234 00d6 00BF     		.align	2
 235              	.L16:
 236 00d8 00000000 		.word	SO_JOYSTICK_signal
 237              		.cfi_endproc
 238              	.LFE130:
 239              		.size	JOYSTICK_readJoystick_run, .-JOYSTICK_readJoystick_run
 240              		.text
 241              	.Letext0:
 242              		.file 3 "c:\\program files (x86)\\cypress\\psoc creator\\4.4\\psoc creator\\import\\gnu\\arm\\5.4.
 243              		.file 4 "c:\\program files (x86)\\cypress\\psoc creator\\4.4\\psoc creator\\import\\gnu\\arm\\5.4.
 244              		.file 5 "c:\\program files (x86)\\cypress\\psoc creator\\4.4\\psoc creator\\import\\gnu\\arm\\5.4.
 245              		.file 6 "Generated_Source\\PSoC5/ErikaOS_common_ee_types.inc"
 246              		.file 7 "Generated_Source\\PSoC5/ErikaOS_cortex_mx_ee_cpu.inc"
 247              		.file 8 "Generated_Source\\PSoC5/ErikaOS_ee_oo_common.inc"
 248              		.file 9 ".\\source\\bsw/global.h"
 249              		.file 10 ".\\source\\rte/rte_types.h"
 250              		.file 11 ".\\source\\rte/rte.h"
 251              		.file 12 ".\\source\\rte/sc_joystick_type.h"
 252              		.file 13 "Generated_Source\\PSoC5/ErikaOS_ee_oo_intfunc.inc"
 253              		.file 14 "Generated_Source\\PSoC5/ErikaOS_cortex_mx_ee_context.inc"
 254              		.file 15 "Generated_Source\\PSoC5/ErikaOS_common_ee_primitives.inc"
 255              		.file 16 "Generated_Source\\PSoC5/core_cm3.h"
 256              		.file 17 ".\\source\\rte/sp_common.h"
 257              		.file 18 "Generated_Source\\PSoC5/ErikaOS_ee_oo_kernel.inc"
 258              		.file 19 ".\\source\\bsw\\LabBoard/joystick.h"